(dp0
S'Sci-Fi'
p1
(lp2
F5.828839390386872
aI853
asS'Crime'
p3
(lp4
F6.59053643724697
aI1976
asS'Romance'
p5
(lp6
F6.596904663640125
aI2423
asS'Animation'
p7
(lp8
F6.792329149232918
aI717
asS'Music'
p9
(lp10
F6.73577586206896
aI464
asS'Adult'
p11
(lp12
F6.066666666666666
aI15
asS'Comedy'
p13
(lp14
F6.321287231826699
aI4801
asS'War'
p15
(lp16
F7.116258351893096
aI449
asS'Horror'
p17
(lp18
F5.6362158167036265
aI1353
asS'Film-Noir'
p19
(lp20
F7.172522522522525
aI222
asS'Western'
p21
(lp22
F6.757500000000003
aI280
asS'News'
p23
(lp24
F6.1
aI4
asS'Reality-TV'
p25
(lp26
F8.100000000000001
aI2
asS'Thriller'
p27
(lp28
F6.295724782899136
aI1497
asS'Adventure'
p29
(lp30
F6.3626827717736845
aI1573
asS'Mystery'
p31
(lp32
F6.511945812807886
aI812
asS'Short'
p33
(lp34
F6.7513986013986
aI572
asS'Drama'
p35
(lp36
F6.805938349954643
aI6618
asS'Action'
p37
(lp38
F6.164596895343019
aI1997
asS'Documentary'
p39
(lp40
F7.163705103969749
aI529
asS'Musical'
p41
(lp42
F6.58008948545861
aI447
asS'History'
p43
(lp44
F7.13501199040767
aI417
asS'Family'
p45
(lp46
F6.2881696428571345
aI896
asS'Fantasy'
p47
(lp48
F6.270794392523365
aI856
asS'Sport'
p49
(lp50
F6.5056939501779345
aI281
asS'Biography'
p51
(lp52
F7.090517241379306
aI580
as.