(dp0
S'1948'
p1
(lp2
F7.2983606557377065
aI61
asS'1949'
p3
(lp4
F7.077380952380951
aI84
asS'1942'
p5
(lp6
F6.992405063291137
aI79
asS'1943'
p7
(lp8
F6.996296296296295
aI81
asS'1940'
p9
(lp10
F6.929069767441861
aI86
asS'1941'
p11
(lp12
F7.045121951219511
aI82
asS'1946'
p13
(lp14
F7.068656716417911
aI67
asS'1947'
p15
(lp16
F7.011764705882353
aI68
asS'1944'
p17
(lp18
F7.094029850746269
aI67
asS'1945'
p19
(lp20
F7.069354838709676
aI62
asS'2015'
p21
(lp22
F6.032727272727274
aI110
asS'2014'
p23
(lp24
F6.131868131868136
aI91
asS'2016'
p25
(lp26
F6.970588235294117
aI17
asS'2011'
p27
(lp28
F6.437837837837836
aI222
asS'2010'
p29
(lp30
F6.411818181818182
aI220
asS'2013'
p31
(lp32
F6.285635359116023
aI181
asS'2012'
p33
(lp34
F6.401456310679612
aI206
asS'1955'
p35
(lp36
F7.133333333333335
aI90
asS'1954'
p37
(lp38
F6.736585365853658
aI82
asS'1957'
p39
(lp40
F6.644086021505378
aI93
asS'1956'
p41
(lp42
F6.689655172413793
aI87
asS'1951'
p43
(lp44
F6.987012987012985
aI77
asS'1950'
p45
(lp46
F7.0885057471264385
aI87
asS'1953'
p47
(lp48
F6.825000000000002
aI92
asS'1952'
p49
(lp50
F6.9157142857142855
aI70
asS'1959'
p51
(lp52
F6.7685393258426965
aI89
asS'1958'
p53
(lp54
F6.574193548387099
aI93
asS'1920'
p55
(lp56
F7.153846153846154
aI13
asS'1921'
p57
(lp58
F7.512499999999998
aI16
asS'1922'
p59
(lp60
F7.110526315789474
aI19
asS'1923'
p61
(lp62
F6.744444444444444
aI18
asS'1924'
p63
(lp64
F7.43157894736842
aI19
asS'1925'
p65
(lp66
F7.0777777777777775
aI18
asS'1926'
p67
(lp68
F6.944
aI25
asS'1927'
p69
(lp70
F7.002941176470589
aI34
asS'1928'
p71
(lp72
F7.262500000000002
aI48
asS'1929'
p73
(lp74
F6.7531914893617015
aI47
asS'1933'
p75
(lp76
F6.953703703703702
aI54
asS'1932'
p77
(lp78
F7.11063829787234
aI47
asS'1931'
p79
(lp80
F6.891111111111112
aI45
asS'1930'
p81
(lp82
F6.710638297872341
aI47
asS'1937'
p83
(lp84
F7.166666666666666
aI60
asS'1936'
p85
(lp86
F6.900000000000001
aI70
asS'1935'
p87
(lp88
F6.868333333333334
aI60
asS'1934'
p89
(lp90
F6.803278688524592
aI61
asS'1939'
p91
(lp92
F7.119444444444444
aI72
asS'1938'
p93
(lp94
F7.090384615384613
aI52
asS'1908'
p95
(lp96
F5.933333333333334
aI3
asS'1909'
p97
(lp98
F5.975
aI4
asS'1906'
p99
(lp100
F6.2
aI2
asS'1907'
p101
(lp102
F5.5
aI1
asS'1904'
p103
(lp104
F5.3
aI1
asS'1902'
p105
(lp106
F8.2
aI1
asS'1903'
p107
(lp108
F6.85
aI2
asS'1901'
p109
(lp110
F6.7
aI1
asS'1986'
p111
(lp112
F6.258641975308641
aI162
asS'1987'
p113
(lp114
F6.266666666666667
aI186
asS'1984'
p115
(lp116
F6.4717241379310355
aI145
asS'1985'
p117
(lp118
F6.427272727272727
aI154
asS'1982'
p119
(lp120
F6.597637795275589
aI127
asS'1983'
p121
(lp122
F6.381889763779525
aI127
asS'1980'
p123
(lp124
F6.418461538461535
aI130
asS'1981'
p125
(lp126
F6.4584070796460145
aI113
asS'1988'
p127
(lp128
F6.283333333333333
aI198
asS'1989'
p129
(lp130
F6.23625730994152
aI171
asS'1919'
p131
(lp132
F6.793333333333333
aI15
asS'1918'
p133
(lp134
F6.550000000000002
aI12
asS'1911'
p135
(lp136
F6.8
aI1
asS'1910'
p137
(lp138
F5.8875
aI8
asS'1913'
p139
(lp140
F6.683333333333334
aI6
asS'1912'
p141
(lp142
F6.660000000000001
aI5
asS'1915'
p143
(lp144
F6.326315789473682
aI19
asS'1914'
p145
(lp146
F6.247368421052631
aI19
asS'1917'
p147
(lp148
F6.740000000000001
aI15
asS'1916'
p149
(lp150
F6.590476190476191
aI21
asS'1991'
p151
(lp152
F6.373255813953489
aI172
asS'1990'
p153
(lp154
F6.352840909090906
aI176
asS'1993'
p155
(lp156
F6.280373831775699
aI214
asS'1992'
p157
(lp158
F6.499453551912569
aI183
asS'1995'
p159
(lp160
F6.324888888888885
aI225
asS'1994'
p161
(lp162
F6.247807017543859
aI228
asS'1997'
p163
(lp164
F6.331141868512115
aI289
asS'1996'
p165
(lp166
F6.210606060606063
aI264
asS'1999'
p167
(lp168
F6.394501718213058
aI291
asS'1998'
p169
(lp170
F6.3964968152866275
aI314
asS'1898'
p171
(lp172
F5.875
aI4
asS'1894'
p173
(lp174
F5.900000000000001
aI6
asS'1895'
p175
(lp176
F5.449999999999999
aI8
asS'1896'
p177
(lp178
F4.633333333333334
aI12
asS'1897'
p179
(lp180
F5.3
aI2
asS'1891'
p181
(lp182
F5.066666666666667
aI3
asS'1892'
p183
(lp184
F6.566666666666666
aI3
asS'1893'
p185
(lp186
F6.2
aI1
asS'1968'
p187
(lp188
F6.672549019607844
aI102
asS'1969'
p189
(lp190
F6.783636363636362
aI110
asS'1964'
p191
(lp192
F6.76363636363636
aI110
asS'1965'
p193
(lp194
F6.7290000000000045
aI100
asS'1966'
p195
(lp196
F6.673214285714286
aI112
asS'1967'
p197
(lp198
F6.645454545454544
aI99
asS'1960'
p199
(lp200
F6.95769230769231
aI78
asS'1961'
p201
(lp202
F6.771232876712332
aI73
asS'1962'
p203
(lp204
F7.115853658536584
aI82
asS'1963'
p205
(lp206
F6.893103448275863
aI87
asS'1888'
p207
(lp208
F7.7
aI1
asS'1979'
p209
(lp210
F6.7096491228070185
aI114
asS'1978'
p211
(lp212
F6.415094339622639
aI106
asS'1977'
p213
(lp214
F6.626530612244898
aI98
asS'1976'
p215
(lp216
F6.633333333333337
aI102
asS'1975'
p217
(lp218
F6.660824742268041
aI97
asS'1974'
p219
(lp220
F6.7361111111111125
aI108
asS'1973'
p221
(lp222
F6.824347826086955
aI115
asS'1972'
p223
(lp224
F6.807526881720433
aI93
asS'1971'
p225
(lp226
F6.848598130841119
aI107
asS'1970'
p227
(lp228
F6.479629629629631
aI108
asS'2002'
p229
(lp230
F6.288916256157636
aI406
asS'2003'
p231
(lp232
F6.3305494505494435
aI455
asS'2000'
p233
(lp234
F6.303494623655913
aI372
asS'2001'
p235
(lp236
F6.308312342569271
aI397
asS'2006'
p237
(lp238
F6.211943793911005
aI427
asS'2007'
p239
(lp240
F6.369590643274857
aI342
asS'2004'
p241
(lp242
F6.334530938123748
aI501
asS'2005'
p243
(lp244
F6.279577464788729
aI426
asS'2008'
p245
(lp246
F6.223745819397992
aI299
asS'2009'
p247
(lp248
F6.314982578397216
aI287
as.