(dp0
S'Iain Glen'
p1
(lp2
F6.3
aI1
asS'Rajat Bedi'
p3
(lp4
F4.9
aI1
asS'Jacki Weaver'
p5
(lp6
F7.3
aI1
asS'Sonakshi Sinha'
p7
(lp8
F6.3
aI1
asS'Shane Meadows'
p9
(lp10
F7.3
aI1
asS'John Krasinski'
p11
(lp12
F6.225
aI4
asS'Joe Alaskey'
p13
(lp14
F6.25
aI2
asS'Jesse L. Cyr'
p15
(lp16
F3.2
aI1
asS'Liev Schreiber'
p17
(lp18
F6.6499999999999995
aI4
asS'Saoirse Ronan'
p19
(lp20
F6.949999999999999
aI2
asS'Sh\xc3\xb4 Hayami'
p21
(lp22
F7.5
aI1
asS'Frances Fisher'
p23
(lp24
F6.0
aI1
asS'Pascal Greggory'
p25
(lp26
F7.4
aI2
asS'Kevork Malikyan'
p27
(lp28
F6.7
aI1
asS'James Le Gros'
p29
(lp30
F5.6
aI1
asS'Michael Moshonov'
p31
(lp32
F6.9
aI1
asS'Patrice B\xc3\xa9langer'
p33
(lp34
F7.0
aI1
asS'Exotica'
p35
(lp36
F6.3
aI1
asS'Nick Swardson'
p37
(lp38
F5.5
aI1
asS'M.C. Gainey'
p39
(lp40
F6.3
aI1
asS'Leslie Cabarga'
p41
(lp42
F6.9
aI1
asS'Rodney Saulsberry'
p43
(lp44
F6.0
aI1
asS'Stephen Spinella'
p45
(lp46
F5.8
aI1
asS'Sarah Hadland'
p47
(lp48
F6.0
aI1
asS'Keith Jordan'
p49
(lp50
F6.7
aI1
asS'Eddie Griffin'
p51
(lp52
F4.0
aI3
asS'Charlie Marsh'
p53
(lp54
F2.9
aI1
asS'Young-eun Lee'
p55
(lp56
F7.4
aI1
asS'Anil Kapoor'
p57
(lp58
F4.8
aI3
asS'Angelina Assereto'
p59
(lp60
F6.0
aI1
asS'Reema Sen'
p61
(lp62
F6.8
aI1
asS'Julie Kavner'
p63
(lp64
F7.4
aI1
asS'Pavarisa Phenjati'
p65
(lp66
F7.1
aI1
asS'Werner Herzog'
p67
(lp68
F7.4
aI1
asS'Omar Benson Miller'
p69
(lp70
F6.65
aI2
asS'Anna Kendrick'
p71
(lp72
F6.7
aI1
asS'Mehmet Ali Kaptanlar'
p73
(lp74
F7.5
aI1
asS'Jingchu Zhang'
p75
(lp76
F7.6
aI1
asS'Ill-Young Kim'
p77
(lp78
F6.4
aI1
asS'Henry Thomas'
p79
(lp80
F6.3
aI1
asS'Richard Portnow'
p81
(lp82
F5.9
aI2
asS'G\xc3\xb6tz Otto'
p83
(lp84
F5.8
aI1
asS'Amy Ryan'
p85
(lp86
F6.2
aI1
asS'Wenkang Yuan'
p87
(lp88
F7.3
aI1
asS'Steph Song'
p89
(lp90
F6.1
aI1
asS'Meagan Good'
p91
(lp92
F5.0
aI2
asS'Ian McElhinney'
p93
(lp94
F6.5
aI1
asS'Franco Leo'
p95
(lp96
F7.0
aI1
asS'Chris ODonnell'
p97
(lp98
F6.7
aI1
asS'Gwendoline Yeo'
p99
(lp100
F6.0
aI1
asS'Nathan Corbett'
p101
(lp102
F7.3
aI1
asS'Eric Lloyd'
p103
(lp104
F4.6
aI1
asS'David Crommett'
p105
(lp106
F7.7
aI1
asS'Victor Gojcaj'
p107
(lp108
F6.4
aI1
asS'Sven-Bertil Taube'
p109
(lp110
F7.8
aI1
asS'Soo-kyeong Jeon'
p111
(lp112
F5.8
aI1
asS'Erica Leerhsen'
p113
(lp114
F5.5
aI1
asS'Kirin Kiki'
p115
(lp116
F7.4
aI1
asS'Suwikrom Amaranon'
p117
(lp118
F7.0
aI1
asS'Vinay Pathak'
p119
(lp120
F7.033333333333334
aI3
asS'Kipleigh Brown'
p121
(lp122
F5.4
aI1
asS'Jonah Hill'
p123
(lp124
F6.62
aI5
asS'Dequina Moore'
p125
(lp126
F6.7
aI1
asS'Dakota Fanning'
p127
(lp128
F6.925
aI4
asS'Gabrielle Rose'
p129
(lp130
F4.9
aI2
asS'Hilary Duff'
p131
(lp132
F3.9
aI1
asS'Jean Fran\xc3\xa7ois Heckel'
p133
(lp134
F7.9
aI1
asS'Jason Schwartzman'
p135
(lp136
F7.2
aI1
asS'James Gandolfini'
p137
(lp138
F6.75
aI2
asS'Robert Pattinson'
p139
(lp140
F4.75
aI2
asS'Sally Hawkins'
p141
(lp142
F7.2
aI1
asS'Bruce Altman'
p143
(lp144
F6.1
aI1
asS'Alice Lim'
p145
(lp146
F7.1
aI1
asS'Skandar Keynes'
p147
(lp148
F6.449999999999999
aI2
asS'Chris Riggi'
p149
(lp150
F3.5
aI1
asS'Silvia Colloca'
p151
(lp152
F5.2
aI1
asS'Jerry Seinfeld'
p153
(lp154
F6.2
aI1
asS'Kazuya Takahashi'
p155
(lp156
F8.0
aI1
asS'Scott McNeil'
p157
(lp158
F5.6
aI2
asS'Veronica Sywak'
p159
(lp160
F7.0
aI1
asS'Chace Crawford'
p161
(lp162
F4.75
aI2
asS'Ashton Holmes'
p163
(lp164
F5.9
aI1
asS'Matt Ukena'
p165
(lp166
F2.7
aI1
asS'Padraic Delaney'
p167
(lp168
F7.5
aI1
asS'Ryan Donowho'
p169
(lp170
F4.9
aI1
asS'Rafi Gavron'
p171
(lp172
F6.7
aI1
asS'Bobby Campo'
p173
(lp174
F5.2
aI1
asS'Elena Anaya'
p175
(lp176
F6.266666666666667
aI3
asS'Pen\xc3\xa9lope Cruz'
p177
(lp178
F6.824999999999999
aI4
asS'Shernaz Patel'
p179
(lp180
F7.5
aI1
asS'Brandon Hardesty'
p181
(lp182
F4.8
aI1
asS'Neeral Mulchandani'
p183
(lp184
F7.8
aI1
asS'Niecy Nash'
p185
(lp186
F5.9
aI1
asS'Tim DeKay'
p187
(lp188
F7.3
aI1
asS'Will Forte'
p189
(lp190
F5.4
aI2
asS'Bent Hamer'
p191
(lp192
F6.2
aI1
asS'Michael Chen'
p193
(lp194
F6.2
aI1
asS'Pablo Rago'
p195
(lp196
F8.2
aI1
asS'Anthony Brooks'
p197
(lp198
F4.0
aI1
asS'Ulrika Belogriva'
p199
(lp200
F4.6
aI1
asS'Wes Bentley'
p201
(lp202
F5.9
aI1
asS'Rachel Corrie'
p203
(lp204
F7.4
aI1
asS'Martina Gedeck'
p205
(lp206
F7.95
aI2
asS'Erik Passoja'
p207
(lp208
F5.2
aI1
asS'Charlize Theron'
p209
(lp210
F6.7
aI4
asS'Desi Lydic'
p211
(lp212
F3.6
aI1
asS'Breckin Meyer'
p213
(lp214
F5.7
aI1
asS'Aidan Devine'
p215
(lp216
F6.1
aI1
asS'Calin Stanciu'
p217
(lp218
F3.0
aI1
asS'Ashlynn Yennie'
p219
(lp220
F4.5
aI1
asS'Michele Knotz'
p221
(lp222
F6.5
aI1
asS'Matthew Barry'
p223
(lp224
F6.9
aI1
asS'Zach Galifianakis'
p225
(lp226
F6.25
aI4
asS'Adam LeFevre'
p227
(lp228
F4.2
aI1
asS'Timothy Olyphant'
p229
(lp230
F6.85
aI2
asS'Dion Day'
p231
(lp232
F2.7
aI1
asS'Margaret Avery'
p233
(lp234
F5.3
aI1
asS'Ashley Tisdale'
p235
(lp236
F4.925000000000001
aI4
asS'Vladimir Menshov'
p237
(lp238
F6.5
aI1
asS'Justine Waddell'
p239
(lp240
F7.9
aI1
asS'Jinglei Xu'
p241
(lp242
F7.1
aI2
asS'Yongdai Ding'
p243
(lp244
F6.6
aI1
asS'Francesc Colomer'
p245
(lp246
F7.0
aI1
asS'Linh Dan Pham'
p247
(lp248
F7.9
aI1
asS'James Caan'
p249
(lp250
F7.0
aI1
asS'In-hwa Jeong'
p251
(lp252
F7.0
aI1
asS'Tabu'
p253
(lp254
F7.0
aI2
asS'Rob Manning'
p255
(lp256
F7.4
aI1
asS'Krishnamma Gundimalla'
p257
(lp258
F7.2
aI1
asS'Mary Callaghan Lynch'
p259
(lp260
F6.9
aI1
asS'Maria Roman'
p261
(lp262
F6.5
aI1
asS'Mike Myers'
p263
(lp264
F5.433333333333333
aI3
asS'Xueyun Bai'
p265
(lp266
F7.0
aI1
asS'Gustav Ernesaks'
p267
(lp268
F8.5
aI1
asS'Donna Murphy'
p269
(lp270
F6.2
aI1
asS'James Blackwell'
p271
(lp272
F6.7
aI1
asS'Adrienne Carter'
p273
(lp274
F7.8
aI1
asS'Gopika'
p275
(lp276
F7.3
aI1
asS'Christopher Evan Welch'
p277
(lp278
F7.2
aI1
asS'Brandon T. Jackson'
p279
(lp280
F5.9
aI1
asS'Ned Beatty'
p281
(lp282
F7.025
aI4
asS'Andy Lau'
p283
(lp284
F7.1
aI1
asS'Reda Kateb'
p285
(lp286
F7.9
aI1
asS'Chad R. Davis'
p287
(lp288
F6.7
aI1
asS'Philip Eytan'
p289
(lp290
F5.5
aI1
asS'Yatin Karyekar'
p291
(lp292
F4.2
aI1
asS'Il-hwa Choi'
p293
(lp294
F6.85
aI2
asS'Jing Liang'
p295
(lp296
F5.5
aI1
asS'James Carter Cathcart'
p297
(lp298
F6.5
aI1
asS'Juan Carlos Hern\xc3\xa1ndez'
p299
(lp300
F5.6
aI1
asS'Romi Aboulafia'
p301
(lp302
F6.9
aI1
asS'Takuya Ishida'
p303
(lp304
F7.9
aI1
asS'Craig Robinson'
p305
(lp306
F6.5
aI2
asS'Ilram Choi'
p307
(lp308
F7.0
aI1
asS'Obba Babatund\xc3\xa9'
p309
(lp310
F7.4
aI1
asS'Olivia Williams'
p311
(lp312
F7.3
aI1
asS'Penpak Sirikul'
p313
(lp314
F5.8
aI1
asS'JeeJa Yanin'
p315
(lp316
F7.0
aI1
asS'Katie Featherston'
p317
(lp318
F6.0
aI2
asS'Malin Akerman'
p319
(lp320
F6.949999999999999
aI2
asS'Julie Ordon'
p321
(lp322
F6.8
aI1
asS'Jeanette Brox'
p323
(lp324
F5.3
aI1
asS'Ty Olsson'
p325
(lp326
F6.3
aI1
asS'Aravind Akash'
p327
(lp328
F5.8
aI1
asS'Sam Elliott'
p329
(lp330
F5.6
aI1
asS'Hayley McFarland'
p331
(lp332
F7.4
aI1
asS'Lucas Black'
p333
(lp334
F6.1000000000000005
aI3
asS'Kim Cattrall'
p335
(lp336
F4.9
aI2
asS'Ashley Bell'
p337
(lp338
F5.6
aI1
asS'Francis Benhamou'
p339
(lp340
F7.5
aI1
asS'Brian Boland'
p341
(lp342
F6.050000000000001
aI2
asS'Chris Massoglia'
p343
(lp344
F6.0
aI1
asS'Rufus Sewell'
p345
(lp346
F6.6000000000000005
aI3
asS'Ruth Marshall'
p347
(lp348
F6.2
aI1
asS'Roxane Mesquida'
p349
(lp350
F5.75
aI2
asS'Fan Ding'
p351
(lp352
F7.4
aI1
asS'Stig Frode Henriksen'
p353
(lp354
F6.4
aI1
asS'Michelle Yeoh'
p355
(lp356
F5.6
aI1
asS'Will Oldham'
p357
(lp358
F6.1
aI1
asS'Soyun Jang'
p359
(lp360
F7.7
aI1
asS'Jolene Blalock'
p361
(lp362
F4.4
aI1
asS'Christopher Jordan Wallace'
p363
(lp364
F6.4
aI1
asS'Meredith Droeger'
p365
(lp366
F6.5
aI1
asS'Nicholas Eadie'
p367
(lp368
F6.2
aI1
asS'Johnny Depp'
p369
(lp370
F6.85
aI4
asS'Praew Prapintip'
p371
(lp372
F6.9
aI1
asS'Thandie Newton'
p373
(lp374
F6.3
aI4
asS'Ayse Tezel'
p375
(lp376
F4.9
aI1
asS'Sara Forestier'
p377
(lp378
F6.0
aI1
asS'Louis C.K.'
p379
(lp380
F6.4
aI1
asS'Jin Luo'
p381
(lp382
F6.8
aI1
asS'Lauren Lee Smith'
p383
(lp384
F6.0
aI1
asS'Christina Milian'
p385
(lp386
F5.0
aI2
asS'Laura Romeo'
p387
(lp388
F1.4
aI1
asS'Catherine Anderson Martin'
p389
(lp390
F6.6
aI1
asS'Emma Stone'
p391
(lp392
F6.125
aI4
asS'Queen Latifah'
p393
(lp394
F6.85
aI2
asS'Erica Durance'
p395
(lp396
F4.75
aI2
asS'Michael Illiff'
p397
(lp398
F8.5
aI1
asS'Greg Robbins'
p399
(lp400
F1.4
aI1
asS'Mandy Moore'
p401
(lp402
F5.625
aI4
asS'Stephen McHattie'
p403
(lp404
F6.7
aI1
asS'Chen Manyuan'
p405
(lp406
F6.8
aI1
asS'Sarah Natochenny'
p407
(lp408
F6.5
aI1
asS'Jeanette Hain'
p409
(lp410
F7.6
aI1
asS'Gene Hackman'
p411
(lp412
F7.8
aI1
asS'Qiwen Hong'
p413
(lp414
F7.4
aI1
asS'Marley Shelton'
p415
(lp416
F7.2
aI1
asS'JR Bourne'
p417
(lp418
F6.1
aI1
asS'Sophia Bush'
p419
(lp420
F5.8
aI1
asS'Phyllis Applegate'
p421
(lp422
F7.4
aI1
asS'Noomi Rapace'
p423
(lp424
F7.449999999999999
aI2
asS'Gyu-su Jeong'
p425
(lp426
F6.7
aI1
asS'Mitchel Musso'
p427
(lp428
F6.6
aI1
asS'Gil Kolirin'
p429
(lp430
F4.6
aI1
asS'Johnny Knoxville'
p431
(lp432
F7.1
aI2
asS'Sook-Yin Lee'
p433
(lp434
F6.6
aI1
asS'Adele Hammond'
p435
(lp436
F7.0
aI1
asS'Daniella Wircer'
p437
(lp438
F7.4
aI1
asS'Stanley Tucci'
p439
(lp440
F6.75
aI2
asS'Ted Ludzik'
p441
(lp442
F6.2
aI1
asS'Endre Martin Midtstigen'
p443
(lp444
F6.4
aI1
asS'Artie Lange'
p445
(lp446
F6.0
aI1
asS'Kevin Max'
p447
(lp448
F5.4
aI1
asS'Robert Wisdom'
p449
(lp450
F6.1
aI1
asS'Kimberly J. Brown'
p451
(lp452
F5.4
aI1
asS'Elissa Knight'
p453
(lp454
F8.4
aI1
asS'Tony Ka Fai Leung'
p455
(lp456
F6.8
aI1
asS'Kim Little'
p457
(lp458
F2.1
aI1
asS'Juana Collignon'
p459
(lp460
F6.6
aI1
asS'Xzibit'
p461
(lp462
F6.9
aI1
asS'Al Galvez'
p463
(lp464
F2.3
aI1
asS'Tony Perez'
p465
(lp466
F6.2
aI1
asS'Clayton Allen'
p467
(lp468
F7.7
aI1
asS'Deepak Chopra'
p469
(lp470
F3.8
aI1
asS'Kevin Chamberlin'
p471
(lp472
F6.0
aI1
asS'Laura Breckenridge'
p473
(lp474
F5.2
aI1
asS'Si-Yeon Park'
p475
(lp476
F5.900000000000001
aI3
asS'Jayma Mays'
p477
(lp478
F3.75
aI2
asS'Zac Mattoon OBrien'
p479
(lp480
F7.8
aI1
asS'Jeong-won Choi'
p481
(lp482
F6.1
aI1
asS'Dragos Bucur'
p483
(lp484
F7.3
aI1
asS'Logan Lerman'
p485
(lp486
F6.125
aI4
asS'Doug Jones'
p487
(lp488
F8.2
aI1
asS'Andr\xc3\xa9 Benjamin'
p489
(lp490
F6.0
aI2
asS'Catherine Zeta-Jones'
p491
(lp492
F6.35
aI2
asS'Raquel Alessi'
p493
(lp494
F5.15
aI2
asS'Youan Yang'
p495
(lp496
F7.5
aI1
asS'Patrice ONeal'
p497
(lp498
F3.8
aI1
asS'Eri Fukatsu'
p499
(lp500
F5.4
aI1
asS'Cara Buono'
p501
(lp502
F6.6
aI2
asS'Troy Garity'
p503
(lp504
F6.6
aI1
asS'Harman Baweja'
p505
(lp506
F4.8
aI1
asS'Elsa Zylberstein'
p507
(lp508
F7.6
aI1
asS'Parker Peterson'
p509
(lp510
F6.7
aI1
asS'Connie Britton'
p511
(lp512
F5.699999999999999
aI2
asS'Tamala Jones'
p513
(lp514
F2.9
aI1
asS'Alessandro Nivola'
p515
(lp516
F6.6
aI2
asS'Ali'
p517
(lp518
F4.266666666666667
aI3
asS'Mariame NDiaye'
p519
(lp520
F6.5
aI1
asS'Simon Armstrong'
p521
(lp522
F6.3
aI1
asS'Gabourey Sidibe'
p523
(lp524
F7.4
aI1
asS'Darin De Paul'
p525
(lp526
F7.7
aI1
asS'Riz Ahmed'
p527
(lp528
F7.5
aI1
asS'Nikki Blonsky'
p529
(lp530
F5.5
aI1
asS'Emrey Wright'
p531
(lp532
F2.9
aI1
asS'Jamison Jones'
p533
(lp534
F6.9
aI1
asS'Sharon Leal'
p535
(lp536
F5.0
aI2
asS'Seann William Scott'
p537
(lp538
F6.3
aI3
asS'Margarita Levieva'
p539
(lp540
F6.1
aI2
asS'Ricky Garcia'
p541
(lp542
F3.8
aI1
asS'Pedro Izquierdo'
p543
(lp544
F6.7
aI1
asS'Tatea Reilly'
p545
(lp546
F6.4
aI1
asS'Natalie Maines'
p547
(lp548
F7.7
aI1
asS'Ewa Jasiewicz'
p549
(lp550
F8.0
aI1
asS'Vincenzo Amato'
p551
(lp552
F4.7
aI1
asS'Yi Shin'
p553
(lp554
F5.65
aI2
asS'Jiiva'
p555
(lp556
F7.3
aI1
asS'Morgan Lily'
p557
(lp558
F6.4
aI1
asS'Alexa Davalos'
p559
(lp560
F7.2
aI1
asS'Jackie Chan'
p561
(lp562
F6.324999999999999
aI4
asS'Serge Hazanavicius'
p563
(lp564
F7.6
aI1
asS'Liam Neeson'
p565
(lp566
F6.866666666666667
aI3
asS'Ban-ya Choi'
p567
(lp568
F6.2
aI1
asS'Cristie Whiles'
p569
(lp570
F3.9
aI1
asS'Sada'
p571
(lp572
F6.699999999999999
aI2
asS'Joel Silver'
p573
(lp574
F7.6
aI1
asS'Yann Yann Yeo'
p575
(lp576
F7.1
aI1
asS'Jesse Metcalfe'
p577
(lp578
F6.0
aI2
asS'Jared Kusnitz'
p579
(lp580
F5.9
aI1
asS'Joe Vitale'
p581
(lp582
F5.7
aI1
asS'Crystal Allen'
p583
(lp584
F3.0
aI1
asS'Scott Hazell'
p585
(lp586
F6.6
aI1
asS'Hyun-kyoon Lee'
p587
(lp588
F5.7
aI1
asS'Catherine Frot'
p589
(lp590
F7.1
aI1
asS'Zohar Wexler'
p591
(lp592
F5.3
aI1
asS'Patton Oswalt'
p593
(lp594
F6.933333333333333
aI3
asS'Michael Gentile'
p595
(lp596
F5.6
aI1
asS'Bobbe J. Thompson'
p597
(lp598
F6.9
aI1
asS'Kurt Russell'
p599
(lp600
F6.766666666666666
aI3
asS'Aditya Roy Kapoor'
p601
(lp602
F7.5
aI1
asS'James Kyson'
p603
(lp604
F6.9
aI1
asS'Derek Mears'
p605
(lp606
F6.9
aI1
asS'Siobhan Hewlett'
p607
(lp608
F7.2
aI1
asS'Yang Lan'
p609
(lp610
F7.4
aI1
asS'Amy Kelly'
p611
(lp612
F4.4
aI1
asS'Qingyao Lei'
p613
(lp614
F6.8
aI1
asS'Philippe Petit'
p615
(lp616
F7.9
aI1
asS'Amaury Nolasco'
p617
(lp618
F5.7
aI1
asS'Melora Hardin'
p619
(lp620
F4.1
aI1
asS'Tomoko Tabata'
p621
(lp622
F7.2
aI1
asS'Isabella Leong'
p623
(lp624
F6.3
aI1
asS'Libby Brien'
p625
(lp626
F4.3
aI1
asS'Stephen Sarrazin'
p627
(lp628
F5.7
aI1
asS'Chris Brown'
p629
(lp630
F5.166666666666667
aI3
asS'Ashley Boettcher'
p631
(lp632
F5.4
aI1
asS'Michael Weston'
p633
(lp634
F6.0
aI1
asS'Navdeep'
p635
(lp636
F6.55
aI2
asS'Yu-seok Jeong'
p637
(lp638
F5.4
aI1
asS'Yui Natsukawa'
p639
(lp640
F8.0
aI1
asS'Janet Montgomery'
p641
(lp642
F4.6
aI3
asS'Kym Whitley'
p643
(lp644
F4.2
aI1
asS'Christopher Walken'
p645
(lp646
F5.966666666666666
aI3
asS'Jaclyn Jonet'
p647
(lp648
F3.9
aI1
asS'Jamie Anne Allman'
p649
(lp650
F4.5
aI1
asS'Dante Basco'
p651
(lp652
F6.7
aI1
asS'Edward Asner'
p653
(lp654
F7.2
aI2
asS'Brittany Snow'
p655
(lp656
F5.8
aI1
asS'Eduard Fern\xc3\xa1ndez'
p657
(lp658
F6.1
aI1
asS'Rebecca Griffiths'
p659
(lp660
F7.3
aI1
asS'Jet Li'
p661
(lp662
F6.3
aI3
asS'Clint Howard'
p663
(lp664
F4.0
aI1
asS'Wenli Jiang'
p665
(lp666
F6.95
aI2
asS'Damien Marzette'
p667
(lp668
F6.0
aI1
asS'Cesar De Sutter'
p669
(lp670
F7.5
aI1
asS'Yan Tang'
p671
(lp672
F7.3
aI1
asS'Keeley Hawes'
p673
(lp674
F7.4
aI1
asS'Zack Corke'
p675
(lp676
F6.6
aI1
asS'Gul Panag'
p677
(lp678
F6.1
aI1
asS'Marc Davis'
p679
(lp680
F7.8
aI1
asS'Tomokazu Miura'
p681
(lp682
F6.5
aI1
asS'Nicolas Duvauchelle'
p683
(lp684
F7.0
aI1
asS'Brian Howe'
p685
(lp686
F8.0
aI1
asS'Scott Speedman'
p687
(lp688
F6.5
aI2
asS'Frankie Muniz'
p689
(lp690
F5.1
aI1
asS'Hugh Laurie'
p691
(lp692
F6.699999999999999
aI2
asS'Chris Briggs'
p693
(lp694
F7.0
aI1
asS'Mansi Salvi'
p695
(lp696
F7.1
aI1
asS'Xiong Chunlei'
p697
(lp698
F6.9
aI1
asS'R.D. Reid'
p699
(lp700
F7.4
aI1
asS'Julia Voth'
p701
(lp702
F4.5
aI1
asS'Michelle Ryan'
p703
(lp704
F7.2
aI1
asS'Tanya Sharma'
p705
(lp706
F7.8
aI1
asS'Trevor Moore'
p707
(lp708
F5.1
aI1
asS'Shirley Jones'
p709
(lp710
F7.0
aI1
asS'Trip Payne'
p711
(lp712
F7.4
aI1
asS'Molly Sims'
p713
(lp714
F6.2
aI1
asS'Brendon Baerg'
p715
(lp716
F6.1
aI1
asS'Mahmoud Hamid Ali'
p717
(lp718
F6.6
aI1
asS'Noi Po-ngam'
p719
(lp720
F6.9
aI1
asS'Jack Huston'
p721
(lp722
F5.55
aI2
asS'Hugh Dillon'
p723
(lp724
F6.4
aI1
asS'David Gane'
p725
(lp726
F6.4
aI1
asS'Tomas Alf Larsen'
p727
(lp728
F6.4
aI1
asS'Edward Allier'
p729
(lp730
F6.6
aI1
asS'David Cross'
p731
(lp732
F4.9
aI3
asS'Meena'
p733
(lp734
F4.0
aI1
asS'Manjot Singh'
p735
(lp736
F8.3
aI1
asS'Adam Scott'
p737
(lp738
F4.8
aI1
asS'Edith Little Edie Bouvier Beale'
p739
(lp740
F7.4
aI1
asS'Sean Curley'
p741
(lp742
F6.7
aI1
asS'Sasha Grey'
p743
(lp744
F5.5
aI1
asS'Robert Osborne'
p745
(lp746
F6.7
aI1
asS'Chaotic Cosmos'
p747
(lp748
F6.6
aI1
asS'Kate Blumberg'
p749
(lp750
F6.5
aI1
asS'Elisha Cuthbert'
p751
(lp752
F4.7
aI1
asS'Mix Master Mike'
p753
(lp754
F7.5
aI1
asS'Kengo K\xc3\xb4ra'
p755
(lp756
F6.4
aI1
asS'Heather Burns'
p757
(lp758
F6.2
aI1
asS'Derek Jacobi'
p759
(lp760
F7.4
aI2
asS'Kyung Ho Jung'
p761
(lp762
F6.6
aI1
asS'Holly Elissa'
p763
(lp764
F4.0
aI1
asS'Liam Cunningham'
p765
(lp766
F6.3
aI3
asS'Rakesh Bedi'
p767
(lp768
F5.2
aI1
asS'Caroline Brazier'
p769
(lp770
F6.2
aI1
asS'Franky G'
p771
(lp772
F3.8
aI1
asS'Steve Coogan'
p773
(lp774
F6.4
aI1
asS'Gabe Nevins'
p775
(lp776
F6.7
aI1
asS'Sarah Brightman'
p777
(lp778
F6.7
aI1
asS'Sulevi Peltola'
p779
(lp780
F7.3
aI1
asS'Kevin Smith'
p781
(lp782
F6.85
aI2
asS'Neha Dhupia'
p783
(lp784
F6.6
aI1
asS'Clayne Crawford'
p785
(lp786
F5.1
aI1
asS'Jacob Pitts'
p787
(lp788
F6.3
aI1
asS'Shaun Johnston'
p789
(lp790
F5.8
aI1
asS'Olivier Bonjour'
p791
(lp792
F8.0
aI1
asS'Myl\xc3\xa8ne Jampano\xc3\xaf'
p793
(lp794
F7.1
aI1
asS'Bonnie Hunt'
p795
(lp796
F7.2
aI1
asS'Khulan Chuluun'
p797
(lp798
F7.3
aI1
asS'Flo Di Re'
p799
(lp800
F6.5
aI1
asS'Lina Leandersson'
p801
(lp802
F8.0
aI1
asS'Paul Bettany'
p803
(lp804
F6.166666666666667
aI3
asS'Constance Wu'
p805
(lp806
F6.3
aI1
asS'Jordan Carlson'
p807
(lp808
F8.0
aI1
asS'Edu Boxer'
p809
(lp810
F7.0
aI1
asS'Pitchaya Nitipaisankul'
p811
(lp812
F7.1
aI1
asS'Hafsia Herzi'
p813
(lp814
F7.4
aI1
asS'Hayden Panettiere'
p815
(lp816
F5.933333333333334
aI3
asS'Laura Davies'
p817
(lp818
F6.1
aI1
asS'Yun-shik Baek'
p819
(lp820
F6.5
aI3
asS'Jessica Lucas'
p821
(lp822
F5.2
aI1
asS'Brendan Gleeson'
p823
(lp824
F7.7
aI1
asS'Jun Miho'
p825
(lp826
F5.9
aI1
asS'Kamalinee Mukherjee'
p827
(lp828
F5.2
aI1
asS'James McAvoy'
p829
(lp830
F7.1
aI5
asS'Melissa George'
p831
(lp832
F6.1000000000000005
aI3
asS'Loretta Devine'
p833
(lp834
F5.466666666666666
aI3
asS'Albert Maysles'
p835
(lp836
F7.4
aI1
asS'Samuel L. Jackson'
p837
(lp838
F6.140000000000001
aI5
asS'Lena Headey'
p839
(lp840
F5.5
aI1
asS'Ga\xc3\xablle Bona'
p841
(lp842
F6.7
aI1
asS'Lily Rabe'
p843
(lp844
F6.3
aI1
asS'Hal B. Klein'
p845
(lp846
F6.8
aI1
asS'Felicity Huffman'
p847
(lp848
F5.9
aI1
asS'Jake Weber'
p849
(lp850
F3.8
aI1
asS'Edie Falco'
p851
(lp852
F5.1
aI1
asS'Chlo\xc3\xab Grace Moretz'
p853
(lp854
F5.324999999999999
aI4
asS'George Brown'
p855
(lp856
F7.0
aI1
asS'Su-han Choi'
p857
(lp858
F6.3
aI1
asS'Brandon Alter'
p859
(lp860
F4.3
aI1
asS'Stephen Mangan'
p861
(lp862
F5.8
aI1
asS'Jaime King'
p863
(lp864
F4.8
aI1
asS'Hee-won Kim'
p865
(lp866
F7.9
aI1
asS'John Turturro'
p867
(lp868
F5.5
aI1
asS'Thom Hoffman'
p869
(lp870
F7.8
aI1
asS'Da-Geon'
p871
(lp872
F5.7
aI1
asS'Michael Fassbender'
p873
(lp874
F6.133333333333333
aI3
asS'Mikael Persbrandt'
p875
(lp876
F7.6
aI2
asS'Paul Herman'
p877
(lp878
F7.3
aI1
asS'Joon Ho Bong'
p879
(lp880
F6.3
aI1
asS'Michael Buie'
p881
(lp882
F7.4
aI1
asS'Penne Hackforth-Jones'
p883
(lp884
F7.4
aI1
asS'Roger Guenveur Smith'
p885
(lp886
F4.1
aI1
asS'Colleen Clinkenbeard'
p887
(lp888
F8.1
aI1
asS'Hiroko Yakushimaru'
p889
(lp890
F6.8
aI1
asS'Timothy Spall'
p891
(lp892
F7.1
aI1
asS'Becky Fischer'
p893
(lp894
F7.5
aI1
asS'Adibah Noor'
p895
(lp896
F7.3
aI1
asS'Hawthorne James'
p897
(lp898
F4.1
aI1
asS'Sissy Spacek'
p899
(lp900
F6.35
aI2
asS'Maya Rudolph'
p901
(lp902
F6.85
aI2
asS'Chris Klein'
p903
(lp904
F3.7
aI1
asS'Steve Berg'
p905
(lp906
F6.1
aI1
asS'Keanu Reeves'
p907
(lp908
F6.55
aI4
asS'Chris Rock'
p909
(lp910
F6.066666666666666
aI3
asS'Juan Carlos Serr\xc3\xa1n'
p911
(lp912
F6.3
aI1
asS'Will Ferrell'
p913
(lp914
F6.55
aI10
asS'Michael C. Hall'
p915
(lp916
F5.8
aI1
asS'Drea de Matteo'
p917
(lp918
F6.4
aI1
asS'Ye-jin Son'
p919
(lp920
F6.3999999999999995
aI3
asS'Ellen Burstyn'
p921
(lp922
F7.3
aI1
asS'Tom McCarthy'
p923
(lp924
F6.1
aI1
asS'Gyu-hwa Lee'
p925
(lp926
F6.9
aI1
asS'Geoffrey Beevers'
p927
(lp928
F6.3
aI1
asS'Hiromi Tsuru'
p929
(lp930
F7.5
aI1
asS'Mary-Louise Parker'
p931
(lp932
F7.05
aI2
asS'Whoopi Goldberg'
p933
(lp934
F2.8
aI1
asS'Anna Felix'
p935
(lp936
F7.3
aI1
asS'Melonie Diaz'
p937
(lp938
F7.1
aI1
asS'Don McKellar'
p939
(lp940
F6.6
aI1
asS'Zoe Naylor'
p941
(lp942
F5.8
aI1
asS'Guy Massey'
p943
(lp944
F7.6
aI1
asS'Christina Jastrzembska'
p945
(lp946
F4.6
aI1
asS'Matthew Goode'
p947
(lp948
F7.0600000000000005
aI5
asS'Alex Descas'
p949
(lp950
F6.2
aI1
asS'Ilkka Koivula'
p951
(lp952
F6.9
aI1
asS'Outi M\xc3\xa4enp\xc3\xa4\xc3\xa4'
p953
(lp954
F5.3
aI1
asS'Hideo Nakaizumi'
p955
(lp956
F7.7
aI1
asS'Andr\xc3\xa9 Ramiro'
p957
(lp958
F8.1
aI2
asS'Isaiah Stone'
p959
(lp960
F7.2
aI1
asS'Hun Chang'
p961
(lp962
F6.4
aI1
asS'Ron Eldard'
p963
(lp964
F5.1
aI1
asS'Emily Watson'
p965
(lp966
F6.75
aI2
asS'Horatio Sanz'
p967
(lp968
F5.9
aI1
asS'Bowie Tsang'
p969
(lp970
F6.5
aI1
asS'Kevin Kirkpatrick'
p971
(lp972
F8.1
aI1
asS'Carole Morison'
p973
(lp974
F7.9
aI1
asS'Carl Weathers'
p975
(lp976
F4.1
aI1
asS'Byung-ho Son'
p977
(lp978
F7.4
aI1
asS'Miou-Miou'
p979
(lp980
F7.3
aI1
asS'Sanjay Gandhi'
p981
(lp982
F8.3
aI1
asS'Raini Rodriguez'
p983
(lp984
F5.2
aI1
asS'Logan South'
p985
(lp986
F6.6
aI1
asS'Fabrice Luchini'
p987
(lp988
F6.9
aI1
asS'Sophie Monk'
p989
(lp990
F4.1
aI2
asS'Janice Man'
p991
(lp992
F5.3
aI1
asS'Keira Knightley'
p993
(lp994
F6.866666666666667
aI3
asS'Anupam Kher'
p995
(lp996
F7.4
aI2
asS'Margo Harshman'
p997
(lp998
F4.3
aI1
asS'Hyeon-cheol Jo'
p999
(lp1000
F7.1
aI1
asS'Fernando Vargas'
p1001
(lp1002
F6.9
aI1
asS'Charlyne Yi'
p1003
(lp1004
F6.0
aI1
asS'Ayda Sadeqi'
p1005
(lp1006
F7.3
aI1
asS'Joakim N\xc3\xa4tterqvist'
p1007
(lp1008
F6.6
aI1
asS'Luce Rains'
p1009
(lp1010
F6.8
aI1
asS'Izzy Diaz'
p1011
(lp1012
F6.2
aI1
asS'Lin Shaye'
p1013
(lp1014
F7.2
aI1
asS'Sam Jones III'
p1015
(lp1016
F6.9
aI1
asS'Bruce Davison'
p1017
(lp1018
F1.6
aI1
asS'Greg Travis'
p1019
(lp1020
F3.2
aI1
asS'Haley Bennett'
p1021
(lp1022
F3.8
aI1
asS'Woody Harrelson'
p1023
(lp1024
F6.9
aI7
asS'Tim Meadows'
p1025
(lp1026
F6.7
aI1
asS'Shu Hou'
p1027
(lp1028
F7.7
aI1
asS'Julianna Guill'
p1029
(lp1030
F4.9
aI1
asS'Gary Smith'
p1031
(lp1032
F6.7
aI1
asS'Michael Chiklis'
p1033
(lp1034
F6.1
aI2
asS'Bonnie Aarons'
p1035
(lp1036
F3.6
aI1
asS'Matthew Brook'
p1037
(lp1038
F7.7
aI1
asS'Mimi Rogers'
p1039
(lp1040
F5.1
aI1
asS'Dalia Hern\xc3\xa1ndez'
p1041
(lp1042
F7.8
aI1
asS'Ariane Labed'
p1043
(lp1044
F6.2
aI1
asS'Dexter Fletcher'
p1045
(lp1046
F3.7
aI1
asS'Henry Hunter Hall'
p1047
(lp1048
F5.9
aI1
asS'Tom Skerritt'
p1049
(lp1050
F3.7
aI1
asS'Richard Ryan'
p1051
(lp1052
F6.1
aI1
asS'Lucy Fleming'
p1053
(lp1054
F7.4
aI1
asS'Jon Bernthal'
p1055
(lp1056
F7.2
aI1
asS'Bruce Glover'
p1057
(lp1058
F6.3
aI1
asS'Michael Gambon'
p1059
(lp1060
F7.25
aI2
asS'Lara Dutta'
p1061
(lp1062
F5.5
aI2
asS'Steve Burg'
p1063
(lp1064
F7.7
aI1
asS'David Boreanaz'
p1065
(lp1066
F7.0
aI1
asS'Noah Taylor'
p1067
(lp1068
F7.3
aI1
asS'Ekin Cheng'
p1069
(lp1070
F6.1
aI1
asS'Kaho Minami'
p1071
(lp1072
F6.6
aI1
asS'Aki Maeda'
p1073
(lp1074
F5.5
aI1
asS'Nia Vardalos'
p1075
(lp1076
F5.300000000000001
aI2
asS'Maria Bonnevie'
p1077
(lp1078
F6.8
aI1
asS'Seung-woo Cho'
p1079
(lp1080
F7.2
aI1
asS'Edward Norton'
p1081
(lp1082
F6.625
aI4
asS'Leon Deavers'
p1083
(lp1084
F2.0
aI1
asS'Eva Amurri Martino'
p1085
(lp1086
F6.7
aI1
asS'David Alexander'
p1087
(lp1088
F7.1
aI1
asS'Ed Westwick'
p1089
(lp1090
F3.7
aI1
asS'Jerami Cruise'
p1091
(lp1092
F3.9
aI1
asS'Steven ODonnell'
p1093
(lp1094
F6.2
aI1
asS'Bill Hader'
p1095
(lp1096
F7.099999999999999
aI3
asS'Tim McInnerny'
p1097
(lp1098
F6.4
aI1
asS'James Cromwell'
p1099
(lp1100
F7.25
aI2
asS'Dann Fink'
p1101
(lp1102
F7.7
aI1
asS'Julianna Margulies'
p1103
(lp1104
F6.5
aI2
asS'Rowan Atkinson'
p1105
(lp1106
F6.3
aI1
asS'Scott Caan'
p1107
(lp1108
F4.9
aI1
asS'Chris Carmack'
p1109
(lp1110
F5.6
aI1
asS'Phyllis Somerville'
p1111
(lp1112
F5.9
aI1
asS'Sarah Livingston Evans'
p1113
(lp1114
F3.4
aI1
asS'Ju-bong Choi'
p1115
(lp1116
F6.0
aI1
asS'Jay Bowen'
p1117
(lp1118
F7.2
aI1
asS'Min-jun Kim'
p1119
(lp1120
F7.3
aI1
asS'Deborah Kara Unger'
p1121
(lp1122
F7.0
aI2
asS'Anastasiya Makeeva'
p1123
(lp1124
F6.7
aI1
asS'Won-yeong Jang'
p1125
(lp1126
F5.8
aI1
asS'Bill Milner'
p1127
(lp1128
F7.2
aI1
asS'Saranya Mohan'
p1129
(lp1130
F5.8
aI1
asS'Joffrey Platel'
p1131
(lp1132
F6.9
aI1
asS'William Bassett'
p1133
(lp1134
F7.4
aI1
asS'Willem Dafoe'
p1135
(lp1136
F6.2
aI3
asS'Henrik Dahl'
p1137
(lp1138
F8.0
aI1
asS'Sung Jin'
p1139
(lp1140
F5.7
aI1
asS'Margo Martindale'
p1141
(lp1142
F7.2
aI1
asS'Tom Hughes'
p1143
(lp1144
F6.9
aI1
asS'Javier Bardem'
p1145
(lp1146
F7.225
aI4
asS'Moerangi Tihore'
p1147
(lp1148
F7.5
aI1
asS'Bob Avian'
p1149
(lp1150
F7.5
aI1
asS'Tony Curran'
p1151
(lp1152
F6.85
aI2
asS'Eric Balfour'
p1153
(lp1154
F4.4
aI1
asS'Kevin West'
p1155
(lp1156
F6.0
aI1
asS'Quinton Rampage Jackson'
p1157
(lp1158
F6.8
aI1
asS'Michael Rogers'
p1159
(lp1160
F6.1
aI1
asS'Ross Kohn'
p1161
(lp1162
F5.0
aI1
asS'Sharat Saxena'
p1163
(lp1164
F6.3
aI1
asS'Scott Welsh'
p1165
(lp1166
F6.1
aI1
asS'Eddie Redmayne'
p1167
(lp1168
F6.433333333333334
aI3
asS'Jonathan Alter'
p1169
(lp1170
F7.5
aI1
asS'Wenbo Duan'
p1171
(lp1172
F6.9
aI1
asS'Jessica Chapnik Kahn'
p1173
(lp1174
F8.7
aI1
asS'Beans El-Balawi'
p1175
(lp1176
F6.0
aI1
asS'Lyle Kanouse'
p1177
(lp1178
F7.2
aI1
asS'Channing Tatum'
p1179
(lp1180
F6.26
aI5
asS'Su-yeon Cha'
p1181
(lp1182
F6.4
aI1
asS'Paul Mazursky'
p1183
(lp1184
F6.2
aI1
asS'Serge Houde'
p1185
(lp1186
F5.2
aI1
asS'Axelle Carolyn'
p1187
(lp1188
F6.4
aI1
asS'Thom Michael Mulligan'
p1189
(lp1190
F7.0
aI1
asS'Marina de Tavira'
p1191
(lp1192
F6.7
aI1
asS'Predrag Manojlovic'
p1193
(lp1194
F7.2
aI1
asS'Jake Abel'
p1195
(lp1196
F5.9
aI1
asS'Jean-Claude Van Damme'
p1197
(lp1198
F6.15
aI2
asS'Efren Ramirez'
p1199
(lp1200
F6.6
aI2
asS'Kanye West'
p1201
(lp1202
F3.8
aI1
asS'Richard H. Glanton'
p1203
(lp1204
F7.7
aI1
asS'Joshua McIvor'
p1205
(lp1206
F6.9
aI1
asS'Salvatore Ruocco'
p1207
(lp1208
F7.0
aI1
asS'Robin Shou'
p1209
(lp1210
F3.7
aI1
asS'Qi Shu'
p1211
(lp1212
F6.8
aI1
asS'Brian Adams'
p1213
(lp1214
F7.5
aI1
asS'Lindsey Haun'
p1215
(lp1216
F4.8
aI1
asS'Catalina Murgea'
p1217
(lp1218
F7.0
aI1
asS'Robin Williams'
p1219
(lp1220
F5.640000000000001
aI5
asS'Stuart Mahoney'
p1221
(lp1222
F5.5
aI1
asS'Abhishek Bachchan'
p1223
(lp1224
F6.4
aI1
asS'Anas Wellman'
p1225
(lp1226
F6.2
aI1
asS'Lori Heuring'
p1227
(lp1228
F5.1
aI1
asS'Adam Horovitz'
p1229
(lp1230
F7.5
aI1
asS'David Bierend'
p1231
(lp1232
F5.7
aI1
asS'Rachel L. Carson'
p1233
(lp1234
F7.0
aI1
asS'Christopher Gaze'
p1235
(lp1236
F6.2
aI1
asS'Christopher Lambert'
p1237
(lp1238
F7.0
aI1
asS'Barbara Hershey'
p1239
(lp1240
F8.0
aI1
asS'Peter-Hugo Daly'
p1241
(lp1242
F6.7
aI1
asS'Robert Gerard Larkin'
p1243
(lp1244
F5.8
aI1
asS'Gemma Arterton'
p1245
(lp1246
F6.199999999999999
aI3
asS'Min-a Shin'
p1247
(lp1248
F6.3
aI1
asS'Jill Scott'
p1249
(lp1250
F4.4
aI1
asS'Sophon Pukanok'
p1251
(lp1252
F7.5
aI1
asS'Corin Nemec'
p1253
(lp1254
F2.5
aI1
asS'Alistair Abell'
p1255
(lp1256
F6.9
aI1
asS'Michaela Watkins'
p1257
(lp1258
F5.3
aI1
asS'Hyeon-jae Jo'
p1259
(lp1260
F6.7
aI1
asS'M\xc3\xa9lanie Laurent'
p1261
(lp1262
F7.5
aI4
asS'Olivier Gourmet'
p1263
(lp1264
F6.0
aI1
asS'Yeong-gwang Han'
p1265
(lp1266
F5.6
aI1
asS'Aaron Tveit'
p1267
(lp1268
F6.8
aI1
asS'Ermahn Ospina'
p1269
(lp1270
F5.1
aI1
asS'Emma Lung'
p1271
(lp1272
F7.0
aI1
asS'Rachel Miner'
p1273
(lp1274
F5.35
aI2
asS'Sean Patrick Flanery'
p1275
(lp1276
F6.3
aI1
asS'Tyler McKinney'
p1277
(lp1278
F6.4
aI1
asS'Colin Ford'
p1279
(lp1280
F6.1
aI1
asS'S\xc3\xb3nia Bandeira'
p1281
(lp1282
F7.0
aI1
asS'Tony Barry'
p1283
(lp1284
F6.6
aI1
asS'Thomas Jane'
p1285
(lp1286
F7.4
aI2
asS'Honglei Sun'
p1287
(lp1288
F7.05
aI2
asS'Amanda Crew'
p1289
(lp1290
F6.333333333333333
aI3
asS'Pimpaporn Leenutapong'
p1291
(lp1292
F6.0
aI1
asS'Albert Finney'
p1293
(lp1294
F7.1
aI2
asS'Ha-seon Park'
p1295
(lp1296
F5.8
aI1
asS'Bill Bailey'
p1297
(lp1298
F6.2
aI1
asS'Barry Humphries'
p1299
(lp1300
F8.2
aI1
asS'Peter Sarsgaard'
p1301
(lp1302
F6.466666666666666
aI3
asS'Max Minghella'
p1303
(lp1304
F6.966666666666666
aI3
asS'Sherri Shepherd'
p1305
(lp1306
F2.0
aI1
asS'Hendrik Greis'
p1307
(lp1308
F4.9
aI1
asS'Toru Baba'
p1309
(lp1310
F4.9
aI1
asS'Su-ro Kim'
p1311
(lp1312
F6.8
aI1
asS'Greyson Chadwick'
p1313
(lp1314
F5.9
aI1
asS'Urmila Dammannagari'
p1315
(lp1316
F7.2
aI1
asS'Steve Guttenberg'
p1317
(lp1318
F7.1
aI1
asS'Bob Proctor'
p1319
(lp1320
F5.7
aI1
asS'Torrey DeVitto'
p1321
(lp1322
F3.5
aI1
asS'Olivia dAbo'
p1323
(lp1324
F6.8
aI1
asS'Christian Hecq'
p1325
(lp1326
F4.7
aI1
asS'Carole Derrien'
p1327
(lp1328
F3.6
aI1
asS'Peter Bramhill'
p1329
(lp1330
F3.6
aI1
asS'Isaach De Bankol\xc3\xa9'
p1331
(lp1332
F6.2
aI1
asS'Johannes Krisch'
p1333
(lp1334
F7.6
aI1
asS'In-gi Jeong'
p1335
(lp1336
F7.0
aI2
asS'Nasser'
p1337
(lp1338
F7.1
aI2
asS'Jerry Beck'
p1339
(lp1340
F7.35
aI2
asS'Jeff Bridges'
p1341
(lp1342
F6.899999999999999
aI6
asS'Michael Rapaport'
p1343
(lp1344
F6.7
aI1
asS'Greg Timmermans'
p1345
(lp1346
F7.5
aI1
asS'Bo-young Lee'
p1347
(lp1348
F7.6
aI1
asS'Charlie McDermott'
p1349
(lp1350
F7.2
aI1
asS'Joseph Badalucco Jr.'
p1351
(lp1352
F6.7
aI1
asS'Lauren Graham'
p1353
(lp1354
F5.95
aI2
asS'Johnathon Schaech'
p1355
(lp1356
F6.0
aI1
asS'Bruno Vanden Broecke'
p1357
(lp1358
F7.4
aI1
asS'Dwaine Stevenson'
p1359
(lp1360
F5.7
aI1
asS'Goran Visnjic'
p1361
(lp1362
F7.2
aI1
asS'Shawn Ashmore'
p1363
(lp1364
F5.9
aI1
asS'Bart Johnson'
p1365
(lp1366
F2.8
aI1
asS'Degang Guo'
p1367
(lp1368
F7.4
aI1
asS'Scoutt Lowe'
p1369
(lp1370
F6.8
aI1
asS'Bowen Dong'
p1371
(lp1372
F6.8
aI1
asS'Billy Burke'
p1373
(lp1374
F5.6000000000000005
aI4
asS'Kent Robertson'
p1375
(lp1376
F7.6
aI1
asS'Toshiki Izumisawa'
p1377
(lp1378
F4.9
aI1
asS'Dennis Boutsikaris'
p1379
(lp1380
F6.4
aI1
asS'Justin Bellero'
p1381
(lp1382
F7.5
aI1
asS'Kierston Wareing'
p1383
(lp1384
F7.3
aI1
asS'Gyton Grantley'
p1385
(lp1386
F5.8
aI1
asS'Enrico Lo Verso'
p1387
(lp1388
F6.2
aI1
asS'Jung-woo Ha'
p1389
(lp1390
F7.233333333333333
aI3
asS'Sumanth'
p1391
(lp1392
F5.2
aI1
asS'Juan Pablo Arias Barr\xc3\xb3n'
p1393
(lp1394
F7.6
aI1
asS'Kiefer Sutherland'
p1395
(lp1396
F5.75
aI2
asS'Jason Statham'
p1397
(lp1398
F6.6
aI5
asS'Vincent Ventresca'
p1399
(lp1400
F4.85
aI2
asS'Dustin Hoffman'
p1401
(lp1402
F6.42
aI5
asS'Dong-soo Kim'
p1403
(lp1404
F4.3
aI1
asS'Carlee Avers'
p1405
(lp1406
F3.1
aI1
asS'Wil Johnson'
p1407
(lp1408
F7.7
aI1
asS'Noel Areizaga'
p1409
(lp1410
F5.3
aI1
asS'Linda Emond'
p1411
(lp1412
F6.2
aI1
asS'Ren\xc3\xa9e Zellweger'
p1413
(lp1414
F6.35
aI4
asS'Chaf\xc3\xbbrin'
p1415
(lp1416
F6.733333333333333
aI3
asS'John Cho'
p1417
(lp1418
F6.4
aI1
asS'Taayla Markell'
p1419
(lp1420
F3.5
aI1
asS'Jin-su Kim'
p1421
(lp1422
F6.8
aI1
asS'Parry Shen'
p1423
(lp1424
F5.4
aI1
asS'Matt Dillon'
p1425
(lp1426
F6.35
aI4
asS'Ming Juan Yang'
p1427
(lp1428
F6.4
aI1
asS'Dan Kearney'
p1429
(lp1430
F7.6
aI1
asS'Erik Palladino'
p1431
(lp1432
F4.6
aI1
asS'Melis Birkan'
p1433
(lp1434
F6.9
aI1
asS'Anthony DeSando'
p1435
(lp1436
F6.0
aI1
asS'Peter Atkins'
p1437
(lp1438
F3.7
aI1
asS'Kristin Kreuk'
p1439
(lp1440
F3.7
aI1
asS'Saskia Burmeister'
p1441
(lp1442
F7.0
aI1
asS'Gurmit Singh'
p1443
(lp1444
F6.0
aI1
asS'Jason Bermingham'
p1445
(lp1446
F6.6
aI1
asS'Eddie Izzard'
p1447
(lp1448
F5.3
aI1
asS'Jessica Cauffiel'
p1449
(lp1450
F6.2
aI1
asS'Ken Jeong'
p1451
(lp1452
F4.8
aI1
asS'Chris Tucker'
p1453
(lp1454
F6.2
aI1
asS'Wilmer Valderrama'
p1455
(lp1456
F5.699999999999999
aI2
asS'Jim Carrey'
p1457
(lp1458
F6.7
aI3
asS'Andrea Schmidt'
p1459
(lp1460
F7.4
aI1
asS'Michael McMillian'
p1461
(lp1462
F6.9
aI1
asS'Elle Fanning'
p1463
(lp1464
F6.7
aI1
asS'Michael OKeefe'
p1465
(lp1466
F7.25
aI2
asS'Demetri Martin'
p1467
(lp1468
F6.7
aI1
asS'Jason Bateman'
p1469
(lp1470
F6.540000000000001
aI5
asS'George Clooney'
p1471
(lp1472
F6.550000000000001
aI4
asS'Gary Oldman'
p1473
(lp1474
F5.933333333333334
aI3
asS'Mohammed Afzal'
p1475
(lp1476
F6.7
aI1
asS'Cam Clarke'
p1477
(lp1478
F5.7
aI1
asS'Monica Bellucci'
p1479
(lp1480
F6.95
aI2
asS'Susan Lynch'
p1481
(lp1482
F7.0
aI1
asS'Rob Corddry'
p1483
(lp1484
F5.7
aI3
asS'Ray Stevenson'
p1485
(lp1486
F6.9
aI1
asS'Petch Osathanugrah'
p1487
(lp1488
F5.3
aI1
asS'Robert Taylor'
p1489
(lp1490
F5.9
aI1
asS'Bill Nighy'
p1491
(lp1492
F6.883333333333334
aI6
asS'Bunta Sugawara'
p1493
(lp1494
F6.5
aI1
asS'Archie Panjabi'
p1495
(lp1496
F6.7
aI1
asS'Annette Bening'
p1497
(lp1498
F6.65
aI2
asS'John Harlin III'
p1499
(lp1500
F7.0
aI1
asS'Gang Wu'
p1501
(lp1502
F6.7
aI1
asS'Kyra Sedgwick'
p1503
(lp1504
F6.0
aI2
asS'Peter Astridge'
p1505
(lp1506
F4.9
aI1
asS'America Olivo'
p1507
(lp1508
F4.5
aI1
asS'Bailey Cave'
p1509
(lp1510
F6.7
aI1
asS'Anna Faris'
p1511
(lp1512
F5.75
aI8
asS'Ed Helms'
p1513
(lp1514
F7.8
aI1
asS'Peter Dinklage'
p1515
(lp1516
F4.8
aI1
asS'David OHara'
p1517
(lp1518
F6.9
aI1
asS'Narmila Fathi'
p1519
(lp1520
F7.8
aI1
asS'Wade Davis'
p1521
(lp1522
F6.5
aI1
asS'Annabel Kershaw'
p1523
(lp1524
F6.3
aI1
asS'Amy Brenneman'
p1525
(lp1526
F6.8
aI1
asS'Jared Edwards'
p1527
(lp1528
F3.4
aI1
asS'Dev Patel'
p1529
(lp1530
F6.1
aI2
asS'Omkar Das Manikpuri'
p1531
(lp1532
F7.5
aI1
asS'Martie Maguire'
p1533
(lp1534
F7.7
aI1
asS'Alex Reid'
p1535
(lp1536
F6.2
aI1
asS'Martin Lord Cayce'
p1537
(lp1538
F6.7
aI1
asS'Jakrit Panichpatikam'
p1539
(lp1540
F6.9
aI1
asS'Junior N.T.R.'
p1541
(lp1542
F6.0
aI1
asS'Fann Wong'
p1543
(lp1544
F6.0
aI1
asS'Cameron Diaz'
p1545
(lp1546
F6.533333333333334
aI6
asS'Lauri Pedaja'
p1547
(lp1548
F8.1
aI1
asS'Kelly Preston'
p1549
(lp1550
F6.1
aI2
asS'Kiele Sanchez'
p1551
(lp1552
F6.5
aI1
asS'Melvyn Stokes'
p1553
(lp1554
F6.7
aI1
asS'Michael Adler'
p1555
(lp1556
F3.6
aI1
asS'Ok-bin Kim'
p1557
(lp1558
F6.433333333333333
aI3
asS'Jimmy Shergill'
p1559
(lp1560
F8.4
aI1
asS'Christian Campbell'
p1561
(lp1562
F6.1
aI1
asS'Jack Davenport'
p1563
(lp1564
F7.3
aI1
asS'Alexis Llewellyn'
p1565
(lp1566
F7.2
aI1
asS'Hanaa Bouchaib'
p1567
(lp1568
F7.5
aI1
asS'Julia Roberts'
p1569
(lp1570
F6.233333333333333
aI3
asS'Gary Commock'
p1571
(lp1572
F7.6
aI1
asS'Bob Hoskins'
p1573
(lp1574
F6.5
aI1
asS'Jackie Brown'
p1575
(lp1576
F7.6
aI1
asS'Tommy Flanagan'
p1577
(lp1578
F5.1
aI1
asS'Gina Holden'
p1579
(lp1580
F4.550000000000001
aI2
asS'Rachel Bilson'
p1581
(lp1582
F6.1
aI1
asS'Alain Prost'
p1583
(lp1584
F8.6
aI1
asS'Eric Cantona'
p1585
(lp1586
F7.2
aI1
asS'Zahir Bouzerar'
p1587
(lp1588
F6.5
aI1
asS'Danny McBride'
p1589
(lp1590
F6.333333333333333
aI3
asS'Sharon Stone'
p1591
(lp1592
F4.2
aI1
asS'Evan Peters'
p1593
(lp1594
F7.15
aI2
asS'Teresa Palmer'
p1595
(lp1596
F6.1
aI1
asS'Yukihide Benny'
p1597
(lp1598
F6.0
aI1
asS'Robert Redford'
p1599
(lp1600
F6.2
aI1
asS'Liam Hemsworth'
p1601
(lp1602
F5.8
aI1
asS'K\xc3\xa5re Hedebrant'
p1603
(lp1604
F8.0
aI1
asS'Judd Nelson'
p1605
(lp1606
F3.2
aI1
asS'Kang-ho Song'
p1607
(lp1608
F7.15
aI4
asS'Lake Bell'
p1609
(lp1610
F5.65
aI2
asS'Justin Bartha'
p1611
(lp1612
F6.574999999999999
aI4
asS'Tory Mussett'
p1613
(lp1614
F6.1
aI1
asS'Anna Moreno-Nava'
p1615
(lp1616
F6.0
aI1
asS'Dan Fogler'
p1617
(lp1618
F5.449999999999999
aI2
asS'Lauren Bacall'
p1619
(lp1620
F5.9
aI1
asS'Christian Bale'
p1621
(lp1622
F7.8
aI6
asS'Hee-chul Kim'
p1623
(lp1624
F5.8
aI1
asS'Steven Seagal'
p1625
(lp1626
F4.95
aI6
asS'Adel Bencherif'
p1627
(lp1628
F7.9
aI1
asS'Christina Applegate'
p1629
(lp1630
F5.25
aI2
asS'John Billingsley'
p1631
(lp1632
F8.0
aI1
asS'Manami Honj\xc3\xb4'
p1633
(lp1634
F3.8
aI1
asS'Riza Akin'
p1635
(lp1636
F7.0
aI1
asS'Matthew R. Anderson'
p1637
(lp1638
F5.6
aI1
asS'Vijay'
p1639
(lp1640
F3.8
aI1
asS'Marie-Jos\xc3\xa9e Croze'
p1641
(lp1642
F7.8
aI2
asS'Jemma Wakeman'
p1643
(lp1644
F7.8
aI1
asS'Baoqiang Wang'
p1645
(lp1646
F6.9
aI1
asS'Joshua Hannum'
p1647
(lp1648
F6.8
aI1
asS'Roslyn Ruff'
p1649
(lp1650
F6.550000000000001
aI2
asS'Topher Grace'
p1651
(lp1652
F6.4
aI1
asS'Chris Pine'
p1653
(lp1654
F6.525
aI4
asS'Martin Stringer'
p1655
(lp1656
F8.1
aI1
asS'Beau Bridges'
p1657
(lp1658
F5.75
aI2
asS'Columbus Short'
p1659
(lp1660
F5.85
aI2
asS'Xun Zhou'
p1661
(lp1662
F6.133333333333333
aI3
asS'Josh Lucas'
p1663
(lp1664
F6.466666666666666
aI3
asS'Daniel Franzese'
p1665
(lp1666
F6.3
aI1
asS'Pat Laeger'
p1667
(lp1668
F7.4
aI1
asS'Josh Charles'
p1669
(lp1670
F6.0
aI1
asS'Dan Byrd'
p1671
(lp1672
F7.1
aI1
asS'Patrick J. Adams'
p1673
(lp1674
F5.9
aI1
asS'John Malkovich'
p1675
(lp1676
F6.333333333333333
aI6
asS'Caitlyn Rund'
p1677
(lp1678
F7.2
aI1
asS'David Strathairn'
p1679
(lp1680
F7.300000000000002
aI5
asS'Sarita Joshi'
p1681
(lp1682
F7.9
aI1
asS'Clive Toye'
p1683
(lp1684
F7.3
aI1
asS'Leonardo Alonso'
p1685
(lp1686
F7.6
aI1
asS'Susan Kelso'
p1687
(lp1688
F5.9
aI1
asS'Jae-hun Jeong'
p1689
(lp1690
F6.4
aI1
asS'Ken Watanabe'
p1691
(lp1692
F7.9
aI1
asS'Edward Hibbert'
p1693
(lp1694
F6.7
aI1
asS'Yuanyuan Gao'
p1695
(lp1696
F7.7
aI1
asS'Krisinda Cain'
p1697
(lp1698
F5.8
aI1
asS'Giancarlo Esposito'
p1699
(lp1700
F6.4
aI1
asS'Marsha Thomason'
p1701
(lp1702
F5.6
aI1
asS'Ritchie Allen'
p1703
(lp1704
F5.8
aI1
asS'Alethea Kutscher'
p1705
(lp1706
F3.1
aI1
asS'Taika Waititi'
p1707
(lp1708
F7.5
aI1
asS'Linden Ashby'
p1709
(lp1710
F3.0
aI1
asS'Wei Tang'
p1711
(lp1712
F6.7
aI1
asS'Lew Temple'
p1713
(lp1714
F5.3
aI1
asS'Sergej Trifunovic'
p1715
(lp1716
F5.2
aI1
asS'Rachael Leigh Cook'
p1717
(lp1718
F3.8
aI1
asS'Peter Minygululu'
p1719
(lp1720
F7.0
aI1
asS'Bill Irwin'
p1721
(lp1722
F6.7
aI1
asS'Anthony Edwards'
p1723
(lp1724
F6.7
aI3
asS'Patrick Cranshaw'
p1725
(lp1726
F5.0
aI1
asS'Alfre Woodard'
p1727
(lp1728
F5.95
aI2
asS'Julia West'
p1729
(lp1730
F7.8
aI1
asS'Emily VanCamp'
p1731
(lp1732
F6.0
aI1
asS'Brian Bozick'
p1733
(lp1734
F5.2
aI1
asS'Janne Hyyti\xc3\xa4inen'
p1735
(lp1736
F6.9
aI1
asS'Jana Pallaske'
p1737
(lp1738
F4.7
aI1
asS'Anthony Ray Parker'
p1739
(lp1740
F4.7
aI1
asS'Jae-yeong Jeong'
p1741
(lp1742
F6.7
aI3
asS'Lena Olin'
p1743
(lp1744
F6.5
aI1
asS'Carice van Houten'
p1745
(lp1746
F7.8
aI1
asS'Chi McBride'
p1747
(lp1748
F5.65
aI2
asS'Sophie Traub'
p1749
(lp1750
F5.5
aI1
asS'John Paulsen'
p1751
(lp1752
F5.6
aI1
asS'Rainn Wilson'
p1753
(lp1754
F6.033333333333334
aI3
asS'Christian Stolte'
p1755
(lp1756
F6.55
aI2
asS'Austin Basis'
p1757
(lp1758
F6.2
aI1
asS'Jimmy Carter'
p1759
(lp1760
F7.4
aI1
asS'Famke Janssen'
p1761
(lp1762
F7.0
aI1
asS'Ken Anderson'
p1763
(lp1764
F7.5
aI1
asS'Neil Armstrong'
p1765
(lp1766
F8.1
aI1
asS'Allison Janney'
p1767
(lp1768
F6.4
aI1
asS'Ben Messmer'
p1769
(lp1770
F6.1
aI1
asS'Cyndi Mayo Davis'
p1771
(lp1772
F6.5
aI1
asS'Thorbj\xc3\xb8rn Harr'
p1773
(lp1774
F5.2
aI1
asS'Steven Elder'
p1775
(lp1776
F3.0
aI1
asS'Tudor Chirila'
p1777
(lp1778
F7.0
aI1
asS'Adam Deacon'
p1779
(lp1780
F6.8
aI1
asS'Sophiya Chaudhary'
p1781
(lp1782
F5.0
aI1
asS'Marshall Allman'
p1783
(lp1784
F4.9
aI1
asS'Qifa Hong'
p1785
(lp1786
F6.5
aI1
asS'Tae-hoon Kim'
p1787
(lp1788
F7.9
aI1
asS'Shane Baumel'
p1789
(lp1790
F6.6
aI1
asS'Gustavo Carr'
p1791
(lp1792
F5.7
aI1
asS'Sung-kee Ahn'
p1793
(lp1794
F6.2
aI1
asS'Kinsey Packard'
p1795
(lp1796
F5.9
aI1
asS'Mengqiao Zhao'
p1797
(lp1798
F6.9
aI1
asS'Alycia Delmore'
p1799
(lp1800
F6.1
aI1
asS'Greg Bryk'
p1801
(lp1802
F4.7
aI1
asS'Filip Peeters'
p1803
(lp1804
F7.4
aI1
asS'Geoffrey Lewis'
p1805
(lp1806
F5.1
aI1
asS'Jenny Edwards'
p1807
(lp1808
F5.6
aI1
asS'Jenn Proske'
p1809
(lp1810
F3.5
aI1
asS'Ned Bellamy'
p1811
(lp1812
F5.9
aI1
asS'M\xc3\xa9lissa D\xc3\xa9sormeaux-Poulin'
p1813
(lp1814
F8.2
aI1
asS'Janyse Jaud'
p1815
(lp1816
F7.8
aI1
asS'Johanna Wokalek'
p1817
(lp1818
F7.4
aI1
asS'Zack Keller'
p1819
(lp1820
F6.9
aI1
asS'Unax Ugalde'
p1821
(lp1822
F6.1
aI1
asS'Naomi Watts'
p1823
(lp1824
F6.5
aI1
asS'Rock Chen'
p1825
(lp1826
F7.2
aI1
asS'Siddharth Makkar'
p1827
(lp1828
F6.1
aI1
asS'Jon Lovitz'
p1829
(lp1830
F5.6
aI1
asS'Diego Armando Maradona'
p1831
(lp1832
F8.1
aI1
asS'Shane Van Dyke'
p1833
(lp1834
F1.9000000000000001
aI2
asS'Pitchanart Sakakorn'
p1835
(lp1836
F5.8
aI1
asS'Roger Casamajor'
p1837
(lp1838
F7.0
aI1
asS'Lewis Black'
p1839
(lp1840
F5.65
aI2
asS'Matt Lanter'
p1841
(lp1842
F3.925
aI4
asS'Scott Hylands'
p1843
(lp1844
F6.1
aI1
asS'Debi Derryberry'
p1845
(lp1846
F4.6
aI1
asS'Youcai Wu'
p1847
(lp1848
F6.6
aI1
asS'Michael Shannon'
p1849
(lp1850
F6.266666666666666
aI3
asS'Tyler James Williams'
p1851
(lp1852
F5.1
aI1
asS'Myeong-shin Park'
p1853
(lp1854
F5.7
aI1
asS'Jason Mewes'
p1855
(lp1856
F4.75
aI2
asS'Anthony Hopkins'
p1857
(lp1858
F6.75
aI2
asS'Joanna Moukarzel'
p1859
(lp1860
F7.2
aI1
asS'Dermot Mulroney'
p1861
(lp1862
F5.9
aI1
asS'Dawei Tong'
p1863
(lp1864
F6.8
aI1
asS'Jordan Carlos'
p1865
(lp1866
F6.7
aI1
asS'Daniel McArthur'
p1867
(lp1868
F6.8
aI1
asS'Rosario Dawson'
p1869
(lp1870
F6.7
aI5
asS'Megumi Ogata'
p1871
(lp1872
F7.8
aI1
asS'Tom Papa'
p1873
(lp1874
F6.1
aI1
asS'Mishal Husain'
p1875
(lp1876
F7.9
aI1
asS'Abigail Breslin'
p1877
(lp1878
F7.0
aI6
asS'Jiong He'
p1879
(lp1880
F4.9
aI1
asS'Chen Shu'
p1881
(lp1882
F6.8
aI1
asS'Paul Gross'
p1883
(lp1884
F6.949999999999999
aI2
asS'Matthew Lawrence'
p1885
(lp1886
F4.1
aI1
asS'Brooklynn Proulx'
p1887
(lp1888
F7.5
aI1
asS'Reece Shearsmith'
p1889
(lp1890
F6.2
aI1
asS'Frances McDormand'
p1891
(lp1892
F7.0
aI1
asS'Kenan Thompson'
p1893
(lp1894
F3.6
aI1
asS'Ben Burtt'
p1895
(lp1896
F8.4
aI1
asS'Seung-won Cha'
p1897
(lp1898
F6.1
aI1
asS'Ivana Baquero'
p1899
(lp1900
F8.2
aI1
asS'Bob Bancroft'
p1901
(lp1902
F4.5
aI1
asS'Eric Christian Olsen'
p1903
(lp1904
F5.566666666666666
aI3
asS'Tatsuya Fujiwara'
p1905
(lp1906
F7.4
aI1
asS'Deepal Shaw'
p1907
(lp1908
F8.4
aI1
asS'Maxine Peake'
p1909
(lp1910
F7.0
aI1
asS'Shawn Parr'
p1911
(lp1912
F5.9
aI1
asS'Colin Foo'
p1913
(lp1914
F3.5
aI1
asS'Timyra-Joi Beatty'
p1915
(lp1916
F6.6
aI1
asS'Yvette Yates'
p1917
(lp1918
F5.3
aI1
asS'Hrithik Roshan'
p1919
(lp1920
F6.55
aI4
asS'Kaoru Kobayashi'
p1921
(lp1922
F3.8
aI1
asS'Kali Rocha'
p1923
(lp1924
F6.6
aI1
asS'Monica Allison'
p1925
(lp1926
F4.9
aI1
asS'Isha Koppikar'
p1927
(lp1928
F7.2
aI1
asS'Veronica Ferres'
p1929
(lp1930
F5.2
aI1
asS'Gael Garc\xc3\xada Bernal'
p1931
(lp1932
F6.9
aI2
asS'MoNique'
p1933
(lp1934
F5.2
aI2
asS'Ki-yong Jang'
p1935
(lp1936
F6.2
aI1
asS'Yuanbing Gao'
p1937
(lp1938
F6.5
aI1
asS'Ravi Verma'
p1939
(lp1940
F5.2
aI1
asS'Haitham Ahmed Zaki'
p1941
(lp1942
F6.2
aI1
asS'Hye-jeong Kang'
p1943
(lp1944
F6.833333333333333
aI3
asS'Emily Procter'
p1945
(lp1946
F4.6
aI1
asS'Leo Putt'
p1947
(lp1948
F6.0
aI1
asS'Spencer Breslin'
p1949
(lp1950
F4.85
aI2
asS'Shauna Macdonald'
p1951
(lp1952
F5.8
aI1
asS'Mathew Wilkinson'
p1953
(lp1954
F5.9
aI1
asS'John Schneider'
p1955
(lp1956
F4.6
aI1
asS'Matthew J. Munn'
p1957
(lp1958
F5.2
aI1
asS'Daniel Day-Lewis'
p1959
(lp1960
F8.1
aI1
asS'Claire Danes'
p1961
(lp1962
F6.15
aI2
asS'Tracy Scoggins'
p1963
(lp1964
F3.8
aI1
asS'Fred Colcci'
p1965
(lp1966
F7.0
aI1
asS'Cherise Boothe'
p1967
(lp1968
F5.8
aI1
asS'Zinat S. Lloyd'
p1969
(lp1970
F7.4
aI1
asS'Catherine Deneuve'
p1971
(lp1972
F7.55
aI2
asS'Frances Conroy'
p1973
(lp1974
F5.1
aI2
asS'James Hiroyuki Liao'
p1975
(lp1976
F5.3
aI1
asS'Kevin Bacon'
p1977
(lp1978
F6.7749999999999995
aI4
asS'Joel McHale'
p1979
(lp1980
F5.7
aI1
asS'Jacqueline Apitananon'
p1981
(lp1982
F5.5
aI1
asS'Aishwarya Rai Bachchan'
p1983
(lp1984
F6.433333333333334
aI3
asS'Eung-soo Kim'
p1985
(lp1986
F5.9
aI1
asS'Chad Faust'
p1987
(lp1988
F4.8
aI1
asS'Ramachandriah Marikanti'
p1989
(lp1990
F7.2
aI1
asS'Sachet Engineer'
p1991
(lp1992
F8.5
aI1
asS'Irma Adlawan'
p1993
(lp1994
F5.8
aI1
asS'Peter Wingfield'
p1995
(lp1996
F3.1
aI1
asS'Julie Ferrier'
p1997
(lp1998
F6.8
aI1
asS'Tyler Labine'
p1999
(lp2000
F7.6
aI1
asS'Randy Couture'
p2001
(lp2002
F6.6
aI1
asS'Derek Luke'
p2003
(lp2004
F6.0
aI4
asS'Riteish Deshmukh'
p2005
(lp2006
F6.8
aI1
asS'Hannah Hughes'
p2007
(lp2008
F5.5
aI1
asS'Richard Gere'
p2009
(lp2010
F6.6
aI7
asS'Takuya Kimura'
p2011
(lp2012
F6.1
aI1
asS'Tom Hardy'
p2013
(lp2014
F6.2
aI2
asS'Nadia Bjorlin'
p2015
(lp2016
F3.9
aI1
asS'Sayed Jafar Masihullah Gharibzada'
p2017
(lp2018
F7.6
aI1
asS'Richard Birrinbirrin'
p2019
(lp2020
F7.0
aI1
asS'Avital Greenberg-Teplitsky'
p2021
(lp2022
F8.7
aI1
asS'Johnny Lewis'
p2023
(lp2024
F4.7
aI1
asS'Nick Stahl'
p2025
(lp2026
F6.15
aI2
asS'Jong-hyeok Lee'
p2027
(lp2028
F5.8
aI1
asS'Daniel Olbrychski'
p2029
(lp2030
F6.4
aI1
asS'Ahney Her'
p2031
(lp2032
F8.2
aI1
asS'Jessica Biel'
p2033
(lp2034
F6.466666666666666
aI6
asS'Jean-Louis Coulloch'
p2035
(lp2036
F6.8
aI1
asS'Lori Lust'
p2037
(lp2038
F6.3
aI1
asS'Kotono Mitsuishi'
p2039
(lp2040
F7.8
aI1
asS'Laurie Simmons'
p2041
(lp2042
F6.3
aI1
asS'Jason Ritter'
p2043
(lp2044
F6.6
aI2
asS'James Naughton'
p2045
(lp2046
F5.5
aI1
asS'Bruce Willis'
p2047
(lp2048
F6.5
aI8
asS'Terry Whistler'
p2049
(lp2050
F6.7
aI1
asS'Jamie Foxx'
p2051
(lp2052
F6.8
aI4
asS'Bernie Mac'
p2053
(lp2054
F5.8
aI1
asS'Ice Cube'
p2055
(lp2056
F4.533333333333334
aI3
asS'Cy Carter'
p2057
(lp2058
F6.3
aI1
asS'Emma Roberts'
p2059
(lp2060
F5.533333333333334
aI3
asS'Richard Tillman'
p2061
(lp2062
F6.2
aI1
asS'Guillaume Canet'
p2063
(lp2064
F7.0
aI1
asS'Sam Rockwell'
p2065
(lp2066
F7.433333333333334
aI3
asS'Callin \xc3\x96hrvall'
p2067
(lp2068
F7.5
aI1
asS'Woon-taek Jeong'
p2069
(lp2070
F6.6
aI1
asS'Marijke Pinoy'
p2071
(lp2072
F7.5
aI1
asS'Carey Perloff'
p2073
(lp2074
F6.2
aI1
asS'Callan McAuliffe'
p2075
(lp2076
F7.7
aI1
asS'Jackson Rathbone'
p2077
(lp2078
F4.2
aI1
asS'Sylvie Testud'
p2079
(lp2080
F7.7
aI1
asS'Chao Deng'
p2081
(lp2082
F6.166666666666667
aI3
asS'Chaylon Blancett'
p2083
(lp2084
F5.5
aI1
asS'Cuba Gooding Jr.'
p2085
(lp2086
F4.066666666666666
aI3
asS'Tony Shanahan'
p2087
(lp2088
F7.2
aI1
asS'Rasmus Kaljuj\xc3\xa4rv'
p2089
(lp2090
F7.2
aI1
asS'Misty Upham'
p2091
(lp2092
F7.2
aI1
asS'Sean Hayes'
p2093
(lp2094
F7.4
aI1
asS'Ronald Saliba'
p2095
(lp2096
F2.4
aI1
asS'Jaruchai Iamaram'
p2097
(lp2098
F7.5
aI1
asS'Jillian Murray'
p2099
(lp2100
F4.6
aI1
asS'Chethan Kumar'
p2101
(lp2102
F7.3
aI1
asS'Cara Pifko'
p2103
(lp2104
F5.1
aI1
asS'Cecilia Huete'
p2105
(lp2106
F3.9
aI1
asS'Jack Finsterer'
p2107
(lp2108
F6.2
aI1
asS'Melissa Jones'
p2109
(lp2110
F5.6
aI1
asS'Morris Chestnut'
p2111
(lp2112
F6.1
aI1
asS'Ji-yeong Kim'
p2113
(lp2114
F5.8
aI1
asS'Yeong-hie Seo'
p2115
(lp2116
F7.9
aI1
asS'Rajat Kapoor'
p2117
(lp2118
F7.9
aI1
asS'Megumi Hayashibara'
p2119
(lp2120
F7.266666666666667
aI3
asS'Sienna Guillory'
p2121
(lp2122
F5.1
aI1
asS'Sarain Boylan'
p2123
(lp2124
F7.0
aI1
asS'Carlos Amezcua'
p2125
(lp2126
F5.5
aI1
asS'Niels Arestrup'
p2127
(lp2128
F7.9
aI1
asS'Yase Liu'
p2129
(lp2130
F6.9
aI1
asS'Anthony McPartlin'
p2131
(lp2132
F5.8
aI1
asS'Thekla Reuten'
p2133
(lp2134
F3.1
aI1
asS'David Maldonado'
p2135
(lp2136
F7.2
aI1
asS'Laurence Fishburne'
p2137
(lp2138
F6.6
aI2
asS'Dylan Baker'
p2139
(lp2140
F7.4
aI1
asS'Ne-Yo'
p2141
(lp2142
F5.2
aI1
asS'Ronny Cox'
p2143
(lp2144
F5.6
aI1
asS'Michael Rivera'
p2145
(lp2146
F5.6
aI1
asS'Min-gi Jo'
p2147
(lp2148
F5.9
aI1
asS'Hideaki It\xc3\xb4'
p2149
(lp2150
F6.3
aI1
asS'Craig Parkinson'
p2151
(lp2152
F4.8
aI1
asS'Bob Bergen'
p2153
(lp2154
F6.4
aI1
asS'Daniel Hansen'
p2155
(lp2156
F6.9
aI1
asS'Deborah Twiss'
p2157
(lp2158
F7.7
aI1
asS'Jia Song'
p2159
(lp2160
F6.8
aI1
asS'Tsuyoshi Kusanagi'
p2161
(lp2162
F6.8
aI1
asS'Peter Wall'
p2163
(lp2164
F7.3
aI1
asS'Prateek Gandhi'
p2165
(lp2166
F5.1
aI1
asS'Vivienne van den Assem'
p2167
(lp2168
F4.8
aI1
asS'Tyler Perry'
p2169
(lp2170
F4.62
aI5
asS'Kristy Swanson'
p2171
(lp2172
F3.2
aI1
asS'Jeff Branson'
p2173
(lp2174
F6.3
aI1
asS'Kevin Jonas'
p2175
(lp2176
F3.5999999999999996
aI2
asS'Chris Bruno'
p2177
(lp2178
F2.8
aI1
asS'Asa Butterfield'
p2179
(lp2180
F6.949999999999999
aI2
asS'Kyoko Muramatsu'
p2181
(lp2182
F6.1
aI1
asS'Ahmet Ertegun'
p2183
(lp2184
F7.3
aI1
asS'Ronnie James Dio'
p2185
(lp2186
F6.8
aI1
asS'Desmond Askew'
p2187
(lp2188
F5.3
aI1
asS'A.J. Castro'
p2189
(lp2190
F2.3
aI1
asS'Yeo-jin Choi'
p2191
(lp2192
F6.8
aI1
asS'Natalya Rudakova'
p2193
(lp2194
F6.1
aI1
asS'Haley Webb'
p2195
(lp2196
F5.2
aI1
asS'Noah Ringer'
p2197
(lp2198
F4.2
aI1
asS'Leonard Nimoy'
p2199
(lp2200
F8.0
aI1
asS'Eduardo Semerjian'
p2201
(lp2202
F6.6
aI1
asS'Robert Benton'
p2203
(lp2204
F6.4
aI1
asS'Onni Tommila'
p2205
(lp2206
F6.7
aI1
asS'Dong-hoon Ha'
p2207
(lp2208
F5.7
aI1
asS'Sofia Vassilieva'
p2209
(lp2210
F7.4
aI1
asS'Greta Gerwig'
p2211
(lp2212
F6.1
aI1
asS'Jesse Bronstein'
p2213
(lp2214
F5.8
aI1
asS'Alexandra Krosney'
p2215
(lp2216
F5.7
aI1
asS'Johnny Messner'
p2217
(lp2218
F5.2
aI1
asS'Natalie Canerday'
p2219
(lp2220
F4.0
aI1
asS'Hend Ayoub'
p2221
(lp2222
F6.4
aI1
asS'Alan Tudyk'
p2223
(lp2224
F7.6
aI1
asS'Rene Liu'
p2225
(lp2226
F6.5
aI1
asS'Irina Bezrukova'
p2227
(lp2228
F7.0
aI1
asS'Xiaodong Guo'
p2229
(lp2230
F7.0
aI1
asS'Adrienne Pickering'
p2231
(lp2232
F5.8
aI1
asS'Najwa Nimri'
p2233
(lp2234
F6.2
aI1
asS'Austin Nichols'
p2235
(lp2236
F7.2
aI1
asS'Sasson Gabai'
p2237
(lp2238
F7.6
aI1
asS'Peter Fonda'
p2239
(lp2240
F5.2
aI1
asS'Danny Trejo'
p2241
(lp2242
F6.7
aI1
asS'Chris Coppola'
p2243
(lp2244
F4.5
aI1
asS'Katie Jarvis'
p2245
(lp2246
F7.3
aI1
asS'Joan Allen'
p2247
(lp2248
F7.25
aI2
asS'Nicole Parker'
p2249
(lp2250
F1.9
aI1
asS'Gene Ganssle'
p2251
(lp2252
F5.2
aI1
asS'Dave Legeno'
p2253
(lp2254
F6.95
aI2
asS'Catherine OHara'
p2255
(lp2256
F6.360000000000001
aI5
asS'Amanda Bynes'
p2257
(lp2258
F6.6000000000000005
aI3
asS'Sarah Polley'
p2259
(lp2260
F7.9
aI1
asS'Natalia Avelon'
p2261
(lp2262
F3.1
aI1
asS'Kunal Kapoor'
p2263
(lp2264
F8.4
aI1
asS'Deok-Hwan Ryu'
p2265
(lp2266
F7.0
aI1
asS'Peter Andersson'
p2267
(lp2268
F7.1
aI1
asS'Loral Langemeier'
p2269
(lp2270
F5.7
aI1
asS'Val Kilmer'
p2271
(lp2272
F5.5
aI1
asS'Ziyi Zhang'
p2273
(lp2274
F6.3
aI3
asS'Rajendraprasad'
p2275
(lp2276
F6.0
aI1
asS'Stefano Carappa'
p2277
(lp2278
F7.0
aI1
asS'Billy Ray Cyrus'
p2279
(lp2280
F3.25
aI2
asS'Costas Mandylor'
p2281
(lp2282
F5.824999999999999
aI4
asS'Philip Seymour Hoffman'
p2283
(lp2284
F7.3999999999999995
aI6
asS'Teruaki Masumoto'
p2285
(lp2286
F7.9
aI1
asS'Yuanyuan Ning'
p2287
(lp2288
F6.8
aI1
asS'Masaki Okada'
p2289
(lp2290
F7.8
aI1
asS'Austin Butler'
p2291
(lp2292
F5.4
aI1
asS'Maja Ostaszewska'
p2293
(lp2294
F7.0
aI1
asS'Kimberly Elise'
p2295
(lp2296
F5.9
aI2
asS'Ben Keith'
p2297
(lp2298
F7.8
aI1
asS'Elizabeth McLaughlin'
p2299
(lp2300
F5.4
aI1
asS'Rory Cochrane'
p2301
(lp2302
F6.65
aI2
asS'Leon Herbert'
p2303
(lp2304
F4.5
aI1
asS'Luke Treadaway'
p2305
(lp2306
F6.0
aI1
asS'Bruce McFee'
p2307
(lp2308
F7.4
aI1
asS'Rockmond Dunbar'
p2309
(lp2310
F5.2
aI1
asS'Lasse Valdal'
p2311
(lp2312
F6.4
aI1
asS'Ryan Newman'
p2313
(lp2314
F6.6
aI1
asS'Ha-kyun Shin'
p2315
(lp2316
F7.199999999999999
aI2
asS'Alon Friedman'
p2317
(lp2318
F7.4
aI1
asS'Skylar Astin'
p2319
(lp2320
F6.4
aI1
asS'Ludacris'
p2321
(lp2322
F5.4
aI1
asS'James Marsters'
p2323
(lp2324
F7.1
aI1
asS'Nadia Far\xc3\xa8s'
p2325
(lp2326
F5.9
aI1
asS'Ryan Dunn'
p2327
(lp2328
F7.1
aI1
asS'Marco Antonio Martinez'
p2329
(lp2330
F7.0
aI1
asS'Ricardo Dar\xc3\xadn'
p2331
(lp2332
F8.2
aI1
asS'Ashley Jensen'
p2333
(lp2334
F6.5
aI1
asS'Richard Gant'
p2335
(lp2336
F4.7
aI2
asS'Brooke Burns'
p2337
(lp2338
F1.6
aI1
asS'David Ryall'
p2339
(lp2340
F6.5
aI1
asS'Konkona Sen Sharma'
p2341
(lp2342
F8.2
aI1
asS'Ursula Strauss'
p2343
(lp2344
F7.6
aI1
asS'Derek Jeter'
p2345
(lp2346
F6.7
aI1
asS'Eihi Shiina'
p2347
(lp2348
F6.0
aI1
asS'Yolande Moreau'
p2349
(lp2350
F7.2
aI1
asS'Simon Baker'
p2351
(lp2352
F5.449999999999999
aI2
asS'Andy Garcia'
p2353
(lp2354
F6.6000000000000005
aI3
asS'Brooke Shields'
p2355
(lp2356
F6.1
aI1
asS'Ben Price'
p2357
(lp2358
F3.6
aI1
asS'Aaron Taylor-Johnson'
p2359
(lp2360
F6.966666666666666
aI3
asS'James Lafferty'
p2361
(lp2362
F3.7
aI1
asS'Ty Jones'
p2363
(lp2364
F6.2
aI1
asS'Heath Ledger'
p2365
(lp2366
F9.0
aI1
asS'John Edwards'
p2367
(lp2368
F5.6
aI1
asS'Dileep Rao'
p2369
(lp2370
F6.6
aI1
asS'Kathleen York'
p2371
(lp2372
F5.3
aI1
asS'Nesuhi Erteg\xc3\xbcn'
p2373
(lp2374
F7.3
aI1
asS'Damian Walshe-Howling'
p2375
(lp2376
F5.8
aI1
asS'Rick Forrester'
p2377
(lp2378
F6.0
aI1
asS'Scott Holroyd'
p2379
(lp2380
F6.6
aI1
asS'Marie FitzGerald'
p2381
(lp2382
F8.2
aI1
asS'Christopher McDonald'
p2383
(lp2384
F4.5
aI1
asS'Sifan Shao'
p2385
(lp2386
F5.3
aI1
asS'Bill Murray'
p2387
(lp2388
F7.1
aI1
asS'Frederick Lau'
p2389
(lp2390
F7.6
aI1
asS'Jamie Anderson'
p2391
(lp2392
F5.7
aI1
asS'Howard Berger'
p2393
(lp2394
F6.0
aI1
asS'Guy Pearce'
p2395
(lp2396
F6.7
aI4
asS'Rafe Spall'
p2397
(lp2398
F6.9
aI1
asS'Anna-Marie Wayne'
p2399
(lp2400
F3.4
aI1
asS'David Mann'
p2401
(lp2402
F4.05
aI2
asS'Salman Khan'
p2403
(lp2404
F5.15
aI4
asS'Li Jun Bai'
p2405
(lp2406
F6.4
aI1
asS'James Corden'
p2407
(lp2408
F6.9
aI1
asS'Rosie Shaw'
p2409
(lp2410
F7.9
aI1
asS'Caio Junqueira'
p2411
(lp2412
F8.1
aI1
asS'Marcia Gay Harden'
p2413
(lp2414
F7.233333333333333
aI3
asS'John DiMaggio'
p2415
(lp2416
F7.042857142857143
aI7
asS'Chandler Canterbury'
p2417
(lp2418
F6.050000000000001
aI2
asS'Eddy Kimani'
p2419
(lp2420
F7.7
aI1
asS'Jake McDorman'
p2421
(lp2422
F5.3
aI1
asS'Colin Farrell'
p2423
(lp2424
F6.449999999999999
aI6
asS'Eugene Cordero'
p2425
(lp2426
F3.8
aI1
asS'Rebekah Kochan'
p2427
(lp2428
F6.4
aI1
asS'Tim Eddis'
p2429
(lp2430
F7.0
aI1
asS'John Bul Dau'
p2431
(lp2432
F8.0
aI1
asS'Renars Kaupers'
p2433
(lp2434
F6.7
aI1
asS'Robert Portal'
p2435
(lp2436
F8.0
aI1
asS'Ben Walker'
p2437
(lp2438
F6.1
aI1
asS'Tom Riley'
p2439
(lp2440
F4.6
aI1
asS'Jake Miller'
p2441
(lp2442
F6.7
aI1
asS'Gi-seok Do'
p2443
(lp2444
F6.5
aI1
asS'Drettie Page'
p2445
(lp2446
F3.6
aI1
asS'Jeff Daniels'
p2447
(lp2448
F6.033333333333334
aI3
asS'Elizabeth Mitchell'
p2449
(lp2450
F4.6
aI1
asS'Seok-jeong Hwang'
p2451
(lp2452
F5.9
aI1
asS'Kiron Kher'
p2453
(lp2454
F6.6
aI1
asS'Olga Kurylenko'
p2455
(lp2456
F6.7
aI1
asS'Chriss Anglin'
p2457
(lp2458
F4.3
aI1
asS'Karolina Gruszka'
p2459
(lp2460
F7.0
aI1
asS'Leon Ichaso'
p2461
(lp2462
F7.2
aI1
asS'Jiayi Du'
p2463
(lp2464
F5.7
aI1
asS'Ted Raimi'
p2465
(lp2466
F6.3
aI1
asS'Stephen Rannazzisi'
p2467
(lp2468
F6.3
aI1
asS'Luis Guzm\xc3\xa1n'
p2469
(lp2470
F6.4
aI1
asS'Teri Hatcher'
p2471
(lp2472
F7.7
aI1
asS'Sophia Myles'
p2473
(lp2474
F6.5
aI3
asS'Orla Fitzgerald'
p2475
(lp2476
F7.5
aI1
asS'William Shimell'
p2477
(lp2478
F7.2
aI1
asS'Sharath Lohitashwa'
p2479
(lp2480
F7.3
aI1
asS'Yuan Lin'
p2481
(lp2482
F6.4
aI1
asS'Kajal Aggarwal'
p2483
(lp2484
F7.3
aI1
asS'Yang-hoon Kim'
p2485
(lp2486
F4.3
aI1
asS'Ross McCall'
p2487
(lp2488
F5.0
aI1
asS'J.K. Simmons'
p2489
(lp2490
F5.6
aI1
asS'Robbie Coltrane'
p2491
(lp2492
F5.1
aI1
asS'David Lee Smith'
p2493
(lp2494
F8.0
aI1
asS'Kevin Sorbo'
p2495
(lp2496
F2.7
aI1
asS'Adrienne DeFaria'
p2497
(lp2498
F7.0
aI1
asS'Karen Mok'
p2499
(lp2500
F6.5
aI1
asS'Ty Burrell'
p2501
(lp2502
F6.25
aI2
asS'Tyler Hinman'
p2503
(lp2504
F7.4
aI1
asS'Molly Hagan'
p2505
(lp2506
F7.0
aI1
asS'Alan McKenna'
p2507
(lp2508
F5.1
aI1
asS'Katherine E. Scharhon'
p2509
(lp2510
F7.5
aI1
asS'Christopher Daniel Barnes'
p2511
(lp2512
F6.0
aI1
asS'Lor\xc3\xa0nt Deutsch'
p2513
(lp2514
F6.0
aI1
asS'Kevin M. Horton'
p2515
(lp2516
F4.8
aI1
asS'Niamh Cusack'
p2517
(lp2518
F6.7
aI1
asS'Julianne Moore'
p2519
(lp2520
F6.38
aI5
asS'Nicolette van Dam'
p2521
(lp2522
F4.8
aI1
asS'Jung-ki Kim'
p2523
(lp2524
F6.7
aI1
asS'Kentar\xc3\xb4 Shimazu'
p2525
(lp2526
F5.9
aI1
asS'Hayden Christensen'
p2527
(lp2528
F6.0
aI5
asS'Galen Yuen'
p2529
(lp2530
F7.8
aI1
asS'Charles Adam'
p2531
(lp2532
F7.5
aI1
asS'Geon Yu'
p2533
(lp2534
F6.1
aI1
asS'Milla Jovovich'
p2535
(lp2536
F5.733333333333333
aI6
asS'Tom Selleck'
p2537
(lp2538
F5.4
aI1
asS'Jacob Stringer'
p2539
(lp2540
F8.1
aI1
asS'Lynne Pyrce'
p2541
(lp2542
F5.2
aI1
asS'Daniel Craig'
p2543
(lp2544
F6.566666666666667
aI6
asS'Billy Kimball'
p2545
(lp2546
F6.6
aI1
asS'Andrew Wilson'
p2547
(lp2548
F4.0
aI1
asS'Frank Pietrangolare'
p2549
(lp2550
F7.1
aI1
asS'Lou Engle'
p2551
(lp2552
F7.5
aI1
asS'Justin Batterman'
p2553
(lp2554
F8.3
aI1
asS'Roschdy Zem'
p2555
(lp2556
F6.7
aI1
asS'Johnny Simmons'
p2557
(lp2558
F5.85
aI4
asS'Erik Fones'
p2559
(lp2560
F4.8
aI1
asS'Viola Davis'
p2561
(lp2562
F6.75
aI2
asS'Wiradit Srimalai'
p2563
(lp2564
F6.1
aI1
asS'Sol-Mi Park'
p2565
(lp2566
F6.0
aI1
asS'Robert Englund'
p2567
(lp2568
F5.933333333333333
aI3
asS'Hee-ra Kim'
p2569
(lp2570
F6.3
aI1
asS'Tanay Chheda'
p2571
(lp2572
F8.5
aI1
asS'Catalina Saavedra'
p2573
(lp2574
F7.4
aI1
asS'Anthony Chau-Sang Wong'
p2575
(lp2576
F7.6
aI1
asS'Djimon Hounsou'
p2577
(lp2578
F7.05
aI2
asS'Alia Shawkat'
p2579
(lp2580
F7.1
aI1
asS'Claudette Maill\xc3\xa9'
p2581
(lp2582
F7.2
aI1
asS'Neal McDonough'
p2583
(lp2584
F5.35
aI2
asS'Jennifer Garner'
p2585
(lp2586
F6.675000000000001
aI4
asS'Mr. Brainwash'
p2587
(lp2588
F8.0
aI1
asS'Garrett M. Brown'
p2589
(lp2590
F7.7
aI1
asS'Naseeruddin Shah'
p2591
(lp2592
F8.4
aI1
asS'Anne Hathaway'
p2593
(lp2594
F6.383333333333334
aI6
asS'Dwayne Johnson'
p2595
(lp2596
F6.28
aI5
asS'Missy Peregrym'
p2597
(lp2598
F6.4
aI1
asS'Autumn Reeser'
p2599
(lp2600
F4.6
aI1
asS'Peter Mullan'
p2601
(lp2602
F5.4
aI1
asS'Ju-wan On'
p2603
(lp2604
F6.3
aI1
asS'Michael McLafferty'
p2605
(lp2606
F4.4
aI1
asS'Jonathan Chase'
p2607
(lp2608
F5.0
aI1
asS'Andrew Denton'
p2609
(lp2610
F6.6
aI1
asS'Ji-Gyu Lim'
p2611
(lp2612
F6.4
aI1
asS'Nancy Baldwin'
p2613
(lp2614
F6.3
aI1
asS'Yiwei Liu'
p2615
(lp2616
F5.5
aI1
asS'Y\xc3\xbbsuke Iseya'
p2617
(lp2618
F6.6
aI1
asS'Armin Mueller-Stahl'
p2619
(lp2620
F6.5
aI1
asS'Tobey Maguire'
p2621
(lp2622
F6.15
aI2
asS'Bonnie Henna'
p2623
(lp2624
F6.7
aI1
asS'Bill Maher'
p2625
(lp2626
F7.7
aI1
asS'Udita Goswami'
p2627
(lp2628
F4.9
aI1
asS'Sandra Rodr\xc3\xadguez'
p2629
(lp2630
F6.6
aI1
asS'Pierre Boudreau'
p2631
(lp2632
F7.0
aI1
asS'Sebastian Koch'
p2633
(lp2634
F8.15
aI2
asS'Samuel Chong'
p2635
(lp2636
F6.0
aI1
asS'Adam Hicks'
p2637
(lp2638
F5.4
aI1
asS'Wesley Snipes'
p2639
(lp2640
F6.0
aI2
asS'Gilles De Schryver'
p2641
(lp2642
F7.5
aI1
asS'Big Boi'
p2643
(lp2644
F4.1
aI2
asS'Merlin Bonning'
p2645
(lp2646
F5.8
aI1
asS'Brett Cullen'
p2647
(lp2648
F5.2
aI1
asS'Sianad Gregory'
p2649
(lp2650
F5.2
aI1
asS'Jim Verraros'
p2651
(lp2652
F6.4
aI1
asS'Takashi Tsukamoto'
p2653
(lp2654
F7.0
aI1
asS'Kate Winslet'
p2655
(lp2656
F7.000000000000002
aI5
asS'David Choe'
p2657
(lp2658
F5.5
aI1
asS'Anika Noni Rose'
p2659
(lp2660
F7.2
aI1
asS'Katie Holmes'
p2661
(lp2662
F5.8
aI1
asS'Hugh Walsh'
p2663
(lp2664
F7.9
aI1
asS'Worapat Chittkhaew'
p2665
(lp2666
F7.0
aI1
asS'Harriet Minto-Day'
p2667
(lp2668
F6.5
aI1
asS'Olivia Thirlby'
p2669
(lp2670
F6.75
aI2
asS'Maria Pankratz'
p2671
(lp2672
F7.3
aI1
asS'Debi Mae West'
p2673
(lp2674
F6.9
aI1
asS'Sam Neill'
p2675
(lp2676
F6.9
aI1
asS'Lara Flynn Boyle'
p2677
(lp2678
F5.4
aI2
asS'Scottie Thompson'
p2679
(lp2680
F4.4
aI1
asS'Ji-won Ha'
p2681
(lp2682
F6.85
aI2
asS'Matt Carmody'
p2683
(lp2684
F4.8
aI1
asS'Joe Anderson'
p2685
(lp2686
F7.4
aI1
asS'Jason Segel'
p2687
(lp2688
F7.45
aI2
asS'Shahid Kapoor'
p2689
(lp2690
F6.6
aI1
asS'Emma Campbell'
p2691
(lp2692
F5.7
aI1
asS'Bobby Cannavale'
p2693
(lp2694
F5.9
aI1
asS'Burt Young'
p2695
(lp2696
F7.2
aI1
asS'Zac Efron'
p2697
(lp2698
F5.199999999999999
aI4
asS'Jun Murakami'
p2699
(lp2700
F6.6
aI1
asS'Chris Santos'
p2701
(lp2702
F5.5
aI1
asS'Emma Watson'
p2703
(lp2704
F6.9
aI2
asS'Gattlin Griffith'
p2705
(lp2706
F7.8
aI1
asS'Qian Gu'
p2707
(lp2708
F5.2
aI1
asS'Cody Longo'
p2709
(lp2710
F5.3
aI1
asS'Jenna Jameson'
p2711
(lp2712
F4.1
aI1
asS'Patrick Warburton'
p2713
(lp2714
F5.166666666666667
aI3
asS'J. David Moeller'
p2715
(lp2716
F3.1
aI1
asS'Rajendranath Zutshi'
p2717
(lp2718
F8.0
aI1
asS'You Ge'
p2719
(lp2720
F6.65
aI2
asS'Gi-hwa Kang'
p2721
(lp2722
F6.7
aI1
asS'Hallie Kate Eisenberg'
p2723
(lp2724
F5.4
aI1
asS'Selena Gomez'
p2725
(lp2726
F6.300000000000001
aI2
asS'Julianne Nicholson'
p2727
(lp2728
F6.1
aI2
asS'Ronnie Wood'
p2729
(lp2730
F7.2
aI1
asS'Nicole Kidman'
p2731
(lp2732
F6.625
aI4
asS'Lorraine Stanley'
p2733
(lp2734
F7.1
aI2
asS'Mako'
p2735
(lp2736
F6.3
aI1
asS'Kittipong Wichitcharussakul'
p2737
(lp2738
F7.0
aI1
asS'Tim McGraw'
p2739
(lp2740
F6.9
aI2
asS'An Jo'
p2741
(lp2742
F6.1
aI1
asS'Joely Richardson'
p2743
(lp2744
F6.3
aI1
asS'Preity Zinta'
p2745
(lp2746
F6.2
aI2
asS'Seong-jin Kang'
p2747
(lp2748
F6.3
aI2
asS'Ju-hyuk Kim'
p2749
(lp2750
F5.7
aI1
asS'Lorena King'
p2751
(lp2752
F3.9
aI1
asS'Lou Taylor Pucci'
p2753
(lp2754
F6.033333333333334
aI3
asS'Andrea Garc\xc3\xada-Huidobro'
p2755
(lp2756
F7.4
aI1
asS'Kiko Mizuhara'
p2757
(lp2758
F6.4
aI1
asS'Matt Damon'
p2759
(lp2760
F7.485714285714286
aI7
asS'Adam G. Sevani'
p2761
(lp2762
F6.2
aI2
asS'Rachel Shelley'
p2763
(lp2764
F6.0
aI1
asS'Chris ONeil'
p2765
(lp2766
F6.3
aI1
asS'Steve Martin'
p2767
(lp2768
F6.05
aI2
asS'Taryn Manning'
p2769
(lp2770
F3.8
aI1
asS'Van Abrahams'
p2771
(lp2772
F6.8
aI1
asS'Priyanka Chopra'
p2773
(lp2774
F6.1000000000000005
aI3
asS'Neil Kubath'
p2775
(lp2776
F4.8
aI1
asS'Tony Vogel'
p2777
(lp2778
F5.9
aI1
asS'Rain'
p2779
(lp2780
F6.4
aI1
asS'Yoo-Jeong Kim'
p2781
(lp2782
F7.9
aI1
asS'Owen Campbell'
p2783
(lp2784
F7.2
aI1
asS'Masahiro Motoki'
p2785
(lp2786
F7.55
aI2
asS'Brad Hunt'
p2787
(lp2788
F4.5
aI1
asS'Valerie Cruz'
p2789
(lp2790
F3.8
aI1
asS'Serif Bozkurt'
p2791
(lp2792
F6.9
aI1
asS'Bill Cotter'
p2793
(lp2794
F7.8
aI1
asS'Gil-seung Bang'
p2795
(lp2796
F7.4
aI1
asS'Mark\xc3\xa9ta Irglov\xc3\xa1'
p2797
(lp2798
F7.9
aI1
asS'Mike Binder'
p2799
(lp2800
F6.4
aI1
asS'Donnie Wahlberg'
p2801
(lp2802
F6.0
aI2
asS'Joseph Julian Soria'
p2803
(lp2804
F6.4
aI1
asS'Will Shortz'
p2805
(lp2806
F7.4
aI1
asS'Clare Clifford'
p2807
(lp2808
F7.1
aI1
asS'Martin Huber'
p2809
(lp2810
F5.9
aI1
asS'Eddie Murphy'
p2811
(lp2812
F5.38
aI5
asS'Linda Hunt'
p2813
(lp2814
F8.5
aI1
asS'Janet Jackson'
p2815
(lp2816
F5.333333333333333
aI3
asS'Roger Carel'
p2817
(lp2818
F6.0
aI1
asS'Ka Tung Lam'
p2819
(lp2820
F8.1
aI1
asS'Dan Gerrity'
p2821
(lp2822
F4.8
aI1
asS'Sonu Sood'
p2823
(lp2824
F6.0
aI1
asS'Marie-Christine Adam'
p2825
(lp2826
F7.1
aI1
asS'David Keith'
p2827
(lp2828
F2.1
aI1
asS'Matias Stevens'
p2829
(lp2830
F8.7
aI1
asS'Ben Chaplin'
p2831
(lp2832
F6.6
aI1
asS'Penelope Ann Miller'
p2833
(lp2834
F4.6
aI2
asS'Matthew McConaughey'
p2835
(lp2836
F6.0
aI4
asS'Bryan Barter'
p2837
(lp2838
F7.7
aI1
asS'Chokchai Charoensuk'
p2839
(lp2840
F5.8
aI1
asS'Charlotte Gainsbourg'
p2841
(lp2842
F6.949999999999999
aI2
asS'William Nadylam'
p2843
(lp2844
F7.0
aI1
asS'Kathy Uyen'
p2845
(lp2846
F6.9
aI1
asS'Pauline Collins'
p2847
(lp2848
F6.3
aI1
asS'Greg Wise'
p2849
(lp2850
F6.0
aI1
asS'Mina Kolb'
p2851
(lp2852
F6.2
aI1
asS'Taphon Phopwandee'
p2853
(lp2854
F7.0
aI1
asS'The Jonas Brothers'
p2855
(lp2856
F2.3
aI1
asS'Jeanne Balibar'
p2857
(lp2858
F7.5
aI1
asS'Scoot McNairy'
p2859
(lp2860
F6.4
aI1
asS'Sydney Pollack'
p2861
(lp2862
F7.3
aI1
asS'Noah Emmerich'
p2863
(lp2864
F6.7
aI1
asS'Adriana Barraza'
p2865
(lp2866
F6.5
aI1
asS'Carter Jenkins'
p2867
(lp2868
F5.4
aI1
asS'Frida Cauchi'
p2869
(lp2870
F2.4
aI1
asS'Irina Potapenko'
p2871
(lp2872
F7.6
aI1
asS'Noriko Kijima'
p2873
(lp2874
F5.9
aI1
asS'Kangana Ranaut'
p2875
(lp2876
F6.0
aI1
asS'L. Scott Caldwell'
p2877
(lp2878
F6.9
aI1
asS'Kirk Cameron'
p2879
(lp2880
F6.5
aI1
asS'Seong-guk Choi'
p2881
(lp2882
F5.65
aI2
asS'Kate Beahan'
p2883
(lp2884
F4.8
aI1
asS'Ben Zook'
p2885
(lp2886
F6.0
aI1
asS'Eric Edelstein'
p2887
(lp2888
F6.5
aI1
asS'Keri Russell'
p2889
(lp2890
F6.720000000000001
aI5
asS'Keith Ferguson'
p2891
(lp2892
F6.1
aI1
asS'Bruno Ganz'
p2893
(lp2894
F6.3
aI1
asS'Courteney Cox'
p2895
(lp2896
F4.9
aI2
asS'Sean Penn'
p2897
(lp2898
F5.7
aI1
asS'Su-hee Go'
p2899
(lp2900
F7.3
aI1
asS'Katrina Kaif'
p2901
(lp2902
F4.266666666666667
aI3
asS'Malcolm Stewart'
p2903
(lp2904
F3.9
aI1
asS'Maneerat Kham-uan'
p2905
(lp2906
F7.1
aI1
asS'Richard Kind'
p2907
(lp2908
F7.0
aI1
asS'Anzu'
p2909
(lp2910
F6.1
aI1
asS'David Hyde Pierce'
p2911
(lp2912
F7.2
aI1
asS'David Paetkau'
p2913
(lp2914
F3.5
aI1
asS'Jin-woo Park'
p2915
(lp2916
F6.1
aI1
asS'Vinnie Jones'
p2917
(lp2918
F6.2
aI3
asS'Genevi\xc3\xa8ve Mnich'
p2919
(lp2920
F6.7
aI1
asS'David Wenham'
p2921
(lp2922
F7.0
aI1
asS'In-seo Kim'
p2923
(lp2924
F7.8
aI1
asS'David Schallipp'
p2925
(lp2926
F4.7
aI1
asS'Louie Psihoyos'
p2927
(lp2928
F8.5
aI1
asS'Ari Folman'
p2929
(lp2930
F8.0
aI1
asS'Hiroo And\xc3\xb4'
p2931
(lp2932
F7.1
aI1
asS'Gaelan Connell'
p2933
(lp2934
F6.4
aI1
asS'Ben Whishaw'
p2935
(lp2936
F7.166666666666667
aI3
asS'Taylor Sharpe'
p2937
(lp2938
F6.3
aI1
asS'Rachel Ware'
p2939
(lp2940
F5.3
aI1
asS'Kevan Ohtsji'
p2941
(lp2942
F3.5
aI1
asS'Vincenzo Motta'
p2943
(lp2944
F7.0
aI1
asS'Y\xc3\xbbko Tanaka'
p2945
(lp2946
F6.5
aI1
asS'Jim Stark'
p2947
(lp2948
F6.2
aI1
asS'Hae-il Park'
p2949
(lp2950
F6.3999999999999995
aI3
asS'Sylvaine Strike'
p2951
(lp2952
F8.0
aI1
asS'Jeremy Sheffield'
p2953
(lp2954
F6.0
aI1
asS'Maria Heiskanen'
p2955
(lp2956
F7.2
aI2
asS'Paul Caesar'
p2957
(lp2958
F8.7
aI1
asS'Lin Cui'
p2959
(lp2960
F7.0
aI1
asS'Alexis Clagett'
p2961
(lp2962
F6.6
aI1
asS'Erin Wasson'
p2963
(lp2964
F6.4
aI1
asS'Vic Bondi'
p2965
(lp2966
F7.4
aI1
asS'Dan Mailley'
p2967
(lp2968
F5.8
aI1
asS'Amber Armstrong'
p2969
(lp2970
F6.3
aI1
asS'Jean-Fran\xc3\xa7ois St\xc3\xa9venin'
p2971
(lp2972
F6.2
aI1
asS'Kathleen Benner'
p2973
(lp2974
F5.2
aI1
asS'Preston Nyman'
p2975
(lp2976
F6.3
aI1
asS'Carole Boyd'
p2977
(lp2978
F6.0
aI1
asS'Won-suk Park'
p2979
(lp2980
F5.1
aI1
asS'Willis Burks II'
p2981
(lp2982
F6.7
aI1
asS'Katey Sagal'
p2983
(lp2984
F7.4
aI4
asS'Terence Stamp'
p2985
(lp2986
F6.25
aI2
asS'Penn Badgley'
p2987
(lp2988
F7.1
aI1
asS'Alison Lohman'
p2989
(lp2990
F6.35
aI2
asS'Blake Lively'
p2991
(lp2992
F7.4
aI1
asS'Dominique Pinon'
p2993
(lp2994
F7.2
aI1
asS'Samantha E. Hunt'
p2995
(lp2996
F7.7
aI1
asS'Liisi Koikson'
p2997
(lp2998
F6.8
aI1
asS'Laurie Holden'
p2999
(lp3000
F6.9
aI2
asS'Erik Stolhanske'
p3001
(lp3002
F6.3
aI1
asS'Tracey Moore'
p3003
(lp3004
F4.3
aI1
asS'Aaron Brumfield'
p3005
(lp3006
F3.8
aI1
asS'Asin'
p3007
(lp3008
F7.25
aI2
asS'Allison Miller'
p3009
(lp3010
F5.3
aI1
asS'Ashish Vidyarthi'
p3011
(lp3012
F7.3
aI1
asS'Hong Chen'
p3013
(lp3014
F6.8
aI1
asS'Opal Alladin'
p3015
(lp3016
F7.6
aI1
asS'Jon Stewart'
p3017
(lp3018
F2.8
aI1
asS'Ebon Moss-Bachrach'
p3019
(lp3020
F6.8
aI1
asS'Hugh Grant'
p3021
(lp3022
F5.566666666666666
aI3
asS'Napolean'
p3023
(lp3024
F7.2
aI1
asS'Hae-suk Kim'
p3025
(lp3026
F7.1
aI1
asS'Clark Duke'
p3027
(lp3028
F6.5
aI2
asS'Jason Boyd'
p3029
(lp3030
F7.5
aI1
asS'Oliver Maltman'
p3031
(lp3032
F7.3
aI1
asS'Tasha Smith'
p3033
(lp3034
F5.3
aI1
asS'Catalina Sandino Moreno'
p3035
(lp3036
F6.3
aI1
asS'Nick Zano'
p3037
(lp3038
F5.15
aI2
asS'Nahid Persson'
p3039
(lp3040
F7.4
aI1
asS'Adelaide de Sousa'
p3041
(lp3042
F7.0
aI1
asS'Kelly Sheridan'
p3043
(lp3044
F6.300000000000001
aI2
asS'Rachida Brakni'
p3045
(lp3046
F6.5
aI1
asS'Asher Keddie'
p3047
(lp3048
F6.2
aI1
asS'Betsy Russell'
p3049
(lp3050
F5.824999999999999
aI4
asS'Marwan Hamuda'
p3051
(lp3052
F8.0
aI1
asS'Torry Colichio'
p3053
(lp3054
F7.2
aI1
asS'Edward Austin Kelly'
p3055
(lp3056
F6.9
aI1
asS'Cindy Pickett'
p3057
(lp3058
F6.9
aI1
asS'Kay Kay Menon'
p3059
(lp3060
F7.4
aI1
asS'Samantha Robson'
p3061
(lp3062
F6.1
aI1
asS'Zoe Lister-Jones'
p3063
(lp3064
F7.5
aI1
asS'Ed Speleers'
p3065
(lp3066
F5.1
aI1
asS'Alexa PenaVega'
p3067
(lp3068
F6.7
aI1
asS'Alexandra Maria Lara'
p3069
(lp3070
F6.65
aI2
asS'Paddy Considine'
p3071
(lp3072
F7.3
aI1
asS'Dennis Hopper'
p3073
(lp3074
F6.05
aI2
asS'Jimmy Jean-Louis'
p3075
(lp3076
F3.0
aI1
asS'Prakash Raj'
p3077
(lp3078
F7.1
aI2
asS'Susan May Pratt'
p3079
(lp3080
F5.1
aI1
asS'Nobutoshi Canna'
p3081
(lp3082
F6.3
aI1
asS'Andy Whitfield'
p3083
(lp3084
F5.7
aI1
asS'Mike Vogel'
p3085
(lp3086
F6.4
aI1
asS'Samaire Armstrong'
p3087
(lp3088
F5.199999999999999
aI2
asS'Snoop Dogg'
p3089
(lp3090
F4.1
aI1
asS'Gr\xc3\xa9gory Fitoussi'
p3091
(lp3092
F5.8
aI1
asS'Mads Mikkelsen'
p3093
(lp3094
F7.8
aI1
asS'Maura Tierney'
p3095
(lp3096
F5.8
aI1
asS'Charles Elachi'
p3097
(lp3098
F7.4
aI1
asS'Fattouma Ousliha Bouamari'
p3099
(lp3100
F6.5
aI1
asS'Debra Jo Rupp'
p3101
(lp3102
F7.1
aI1
asS'Jasmine Woods'
p3103
(lp3104
F6.4
aI1
asS'Fred Willard'
p3105
(lp3106
F6.2
aI2
asS'Neil Maskell'
p3107
(lp3108
F4.2
aI1
asS'Vanda Duarte'
p3109
(lp3110
F7.2
aI1
asS'Aleisha Allen'
p3111
(lp3112
F4.0
aI1
asS'Gonzalo Cunill'
p3113
(lp3114
F7.5
aI1
asS'David Slade'
p3115
(lp3116
F7.4
aI1
asS'Jonathan Rhys Meyers'
p3117
(lp3118
F6.5
aI1
asS'Elijah Wood'
p3119
(lp3120
F6.1
aI1
asS'Thomas Morrison'
p3121
(lp3122
F6.7
aI1
asS'Jean-Baptiste Tabourin'
p3123
(lp3124
F6.9
aI1
asS'Jean-Paul Roussillon'
p3125
(lp3126
F7.1
aI1
asS'David Higlen'
p3127
(lp3128
F4.4
aI1
asS'Paris Hilton'
p3129
(lp3130
F2.1
aI1
asS'Jennifer Beals'
p3131
(lp3132
F6.8
aI1
asS'Dianne Wiest'
p3133
(lp3134
F6.449999999999999
aI2
asS'Joon Lee'
p3135
(lp3136
F6.4
aI1
asS'Peter Dante'
p3137
(lp3138
F7.0
aI1
asS'Jimmi Simpson'
p3139
(lp3140
F5.699999999999999
aI2
asS'Cynthia Nixon'
p3141
(lp3142
F4.9
aI2
asS'Oshri Cohen'
p3143
(lp3144
F6.9
aI1
asS'Eva Mendes'
p3145
(lp3146
F6.800000000000001
aI2
asS'Franni Bryson'
p3147
(lp3148
F6.6
aI1
asS'Sang-Woo Kwon'
p3149
(lp3150
F7.6
aI1
asS'Daniel Chac\xc3\xb3n'
p3151
(lp3152
F6.3
aI1
asS'Jeff Anderson'
p3153
(lp3154
F7.4
aI1
asS'Kenton Duty'
p3155
(lp3156
F8.0
aI1
asS'Joseph Friend'
p3157
(lp3158
F6.8
aI1
asS'Macka Foley'
p3159
(lp3160
F5.8
aI1
asS'Junichi K\xc3\xb4moto'
p3161
(lp3162
F4.6
aI1
asS'Eric Tsang'
p3163
(lp3164
F6.7
aI1
asS'Shawn Roberts'
p3165
(lp3166
F5.9
aI1
asS'Lorna Raver'
p3167
(lp3168
F6.6
aI1
asS'Sam Murphy'
p3169
(lp3170
F4.9
aI1
asS'Warren Belle'
p3171
(lp3172
F7.0
aI1
asS'Sean Maguire'
p3173
(lp3174
F2.7
aI1
asS'Paul Rudd'
p3175
(lp3176
F6.066666666666666
aI6
asS'Greg Cipes'
p3177
(lp3178
F4.3
aI1
asS'Kate Isitt'
p3179
(lp3180
F6.0
aI1
asS'Karl Davies'
p3181
(lp3182
F5.8
aI1
asS'Sergi L\xc3\xb3pez'
p3183
(lp3184
F8.2
aI1
asS'Kun Chen'
p3185
(lp3186
F6.2
aI1
asS'Richard Macklin'
p3187
(lp3188
F7.5
aI1
asS'Alex Jennings'
p3189
(lp3190
F6.7
aI2
asS'James Pomichter'
p3191
(lp3192
F2.5
aI1
asS'Kathryn Alexander'
p3193
(lp3194
F6.5
aI1
asS'Amanda Righetti'
p3195
(lp3196
F4.6
aI1
asS'Elizabeth Banks'
p3197
(lp3198
F6.3
aI3
asS'Gretchen Krich'
p3199
(lp3200
F7.5
aI1
asS'Timm Sharp'
p3201
(lp3202
F5.9
aI1
asS'Dustin Milligan'
p3203
(lp3204
F4.4
aI1
asS'Wagner Moura'
p3205
(lp3206
F8.1
aI2
asS'Brian OHalloran'
p3207
(lp3208
F7.4
aI1
asS'Matt Bushell'
p3209
(lp3210
F4.5
aI1
asS'Kelsey Keel'
p3211
(lp3212
F6.5
aI1
asS'Lauren German'
p3213
(lp3214
F5.4
aI1
asS'Emily Bauer'
p3215
(lp3216
F6.5
aI1
asS'Primorata Dejudom'
p3217
(lp3218
F6.2
aI1
asS'Tomoya Okamoto'
p3219
(lp3220
F5.0
aI1
asS'Cher'
p3221
(lp3222
F6.4
aI1
asS'Emmanuelle F\xc3\xa8vre'
p3223
(lp3224
F7.0
aI1
asS'Ian Somerhalder'
p3225
(lp3226
F5.900000000000001
aI3
asS'Allison Anders'
p3227
(lp3228
F6.4
aI1
asS'Swini Khara'
p3229
(lp3230
F7.8
aI1
asS'Yee Tong'
p3231
(lp3232
F5.3
aI1
asS'Amy Poehler'
p3233
(lp3234
F5.8
aI3
asS'Ashanti'
p3235
(lp3236
F5.8
aI1
asS'Danny Midwinter'
p3237
(lp3238
F3.1
aI2
asS'David Ansen'
p3239
(lp3240
F7.5
aI1
asS'Bijou Phillips'
p3241
(lp3242
F5.4
aI1
asS'Evelin V\xc3\xb5igemast'
p3243
(lp3244
F7.2
aI1
asS'Douglas Hodge'
p3245
(lp3246
F5.8
aI1
asS'Mickey Jones'
p3247
(lp3248
F5.1
aI1
asS'Ji-hye Yun'
p3249
(lp3250
F7.3
aI1
asS'Nicholas DAgosto'
p3251
(lp3252
F6.45
aI2
asS'Viggo Mortensen'
p3253
(lp3254
F6.699999999999999
aI2
asS'Heather Matarazzo'
p3255
(lp3256
F5.4
aI1
asS'Laura Gerow'
p3257
(lp3258
F5.7
aI1
asS'Hyeon Ju'
p3259
(lp3260
F6.6
aI2
asS'Y\xc3\xbbsuke Santamaria'
p3261
(lp3262
F5.4
aI1
asS'Ahmed Zaki'
p3263
(lp3264
F6.2
aI1
asS'Cara Seymour'
p3265
(lp3266
F7.3
aI1
asS'Ben Cross'
p3267
(lp3268
F2.5
aI1
asS'Amara Karan'
p3269
(lp3270
F7.2
aI1
asS'Channarong Khuntee-tao'
p3271
(lp3272
F7.1
aI1
asS'Brett Chukerman'
p3273
(lp3274
F6.6
aI2
asS'Claudie Blakley'
p3275
(lp3276
F6.6
aI1
asS'Kevin James'
p3277
(lp3278
F5.5
aI4
asS'Marc Anthony'
p3279
(lp3280
F7.2
aI1
asS'Darsheel Safary'
p3281
(lp3282
F8.5
aI1
asS'Regina Hall'
p3283
(lp3284
F5.1
aI1
asS'Ben Easter'
p3285
(lp3286
F3.5
aI1
asS'Chen Chu'
p3287
(lp3288
F5.2
aI1
asS'Bruce McGill'
p3289
(lp3290
F7.0
aI2
asS'Itsuji Itao'
p3291
(lp3292
F6.0
aI1
asS'M.K. Raina'
p3293
(lp3294
F7.1
aI1
asS'Shmuel Frenkel'
p3295
(lp3296
F8.0
aI1
asS'Lex D. Geddings'
p3297
(lp3298
F5.3
aI1
asS'Judith Hoag'
p3299
(lp3300
F5.8
aI1
asS'Jessica Carlson'
p3301
(lp3302
F6.0
aI1
asS'Yong-woo Park'
p3303
(lp3304
F6.4
aI1
asS'Kathy Bates'
p3305
(lp3306
F5.8
aI3
asS'Veerendra Saxena'
p3307
(lp3308
F7.4
aI1
asS'Daniela Farinacci'
p3309
(lp3310
F6.2
aI1
asS'William Moseley'
p3311
(lp3312
F6.6
aI1
asS'Dan Ashley'
p3313
(lp3314
F7.6
aI1
asS'Marc Wootton'
p3315
(lp3316
F6.8
aI2
asS'Jonathan Bird'
p3317
(lp3318
F8.0
aI1
asS'Harry Treadaway'
p3319
(lp3320
F6.25
aI2
asS'Quinton Aaron'
p3321
(lp3322
F7.7
aI1
asS'Alexandra Williams'
p3323
(lp3324
F6.4
aI1
asS'Mike D'
p3325
(lp3326
F7.5
aI1
asS'Hae-jin Yoo'
p3327
(lp3328
F6.1
aI1
asS'Jane Adams'
p3329
(lp3330
F6.9
aI1
asS'Chiara Mastroianni'
p3331
(lp3332
F8.0
aI1
asS'Henry Ian Cusick'
p3333
(lp3334
F6.0
aI1
asS'Keny\xc3\xbb Horiuchi'
p3335
(lp3336
F6.3
aI1
asS'Dave Hanson'
p3337
(lp3338
F8.1
aI1
asS'Lance Henriksen'
p3339
(lp3340
F4.7
aI1
asS'Grace Thorsen'
p3341
(lp3342
F6.3
aI1
asS'Kulnadda Pachimsawat'
p3343
(lp3344
F6.4
aI1
asS'Sienna Miller'
p3345
(lp3346
F6.65
aI2
asS'Benshan Zhao'
p3347
(lp3348
F7.4
aI1
asS'Scott Rinker'
p3349
(lp3350
F8.1
aI1
asS'Grace Dunham'
p3351
(lp3352
F6.3
aI1
asS'David Schwimmer'
p3353
(lp3354
F6.75
aI2
asS'Kevin Bishop'
p3355
(lp3356
F7.2
aI1
asS'Gary Cole'
p3357
(lp3358
F6.6
aI1
asS'Catherine Keener'
p3359
(lp3360
F6.233333333333333
aI6
asS'Gis\xc3\xa8le Aouad'
p3361
(lp3362
F7.2
aI1
asS'Jordana Brewster'
p3363
(lp3364
F5.9
aI1
asS'Farhad Harun'
p3365
(lp3366
F7.5
aI1
asS'Dileep'
p3367
(lp3368
F5.75
aI2
asS'He Huang'
p3369
(lp3370
F6.6
aI1
asS'Shirley MacLaine'
p3371
(lp3372
F6.6
aI1
asS'James Frecheville'
p3373
(lp3374
F7.3
aI1
asS'Emily Robison'
p3375
(lp3376
F7.7
aI1
asS'Rebecca Palmer'
p3377
(lp3378
F3.6
aI1
asS'Tsuyoshi Ihara'
p3379
(lp3380
F7.9
aI1
asS'Adamo Ruggiero'
p3381
(lp3382
F6.7
aI1
asS'Michelle Conlin'
p3383
(lp3384
F6.7
aI1
asS'Yeo-jeong Jo'
p3385
(lp3386
F5.5
aI1
asS'Tuncel Kurtiz'
p3387
(lp3388
F7.9
aI1
asS'Lennie Loftin'
p3389
(lp3390
F5.9
aI1
asS'Maya Hazen'
p3391
(lp3392
F4.8
aI1
asS'Mark Herbert'
p3393
(lp3394
F7.3
aI1
asS'Nancy Cartwright'
p3395
(lp3396
F7.4
aI1
asS'Simon Pegg'
p3397
(lp3398
F7.066666666666666
aI3
asS'Jason Marsden'
p3399
(lp3400
F6.8
aI1
asS'Joe Mantegna'
p3401
(lp3402
F7.4
aI1
asS'Louis Herthum'
p3403
(lp3404
F5.6
aI1
asS'Jan Skorzewski'
p3405
(lp3406
F6.8
aI1
asS'Hyeong-seong Jang'
p3407
(lp3408
F7.7
aI1
asS'Audrey Tautou'
p3409
(lp3410
F6.766666666666666
aI3
asS'Alejandra Gollas'
p3411
(lp3412
F6.7
aI1
asS'Ben Batt'
p3413
(lp3414
F6.3
aI1
asS'John Hollingworth'
p3415
(lp3416
F6.3
aI1
asS'Alexander Ludwig'
p3417
(lp3418
F5.25
aI2
asS'Lochlyn Munro'
p3419
(lp3420
F2.9
aI1
asS'April Winchell'
p3421
(lp3422
F6.1
aI1
asS'Willa Holland'
p3423
(lp3424
F6.1
aI1
asS'Jennifer Rubin'
p3425
(lp3426
F2.2
aI1
asS'Reiko Kusamura'
p3427
(lp3428
F3.8
aI1
asS'Steve Evets'
p3429
(lp3430
F7.2
aI1
asS'Geum-seok Yang'
p3431
(lp3432
F5.7
aI1
asS'Will Smith'
p3433
(lp3434
F7.2
aI3
asS'Ronald Pickup'
p3435
(lp3436
F4.5
aI1
asS'Brian Boush'
p3437
(lp3438
F6.7
aI1
asS'David Henrie'
p3439
(lp3440
F7.7
aI1
asS'George Lopez'
p3441
(lp3442
F5.333333333333333
aI3
asS'Ken Davitian'
p3443
(lp3444
F5.0
aI2
asS'Christopher Fairbank'
p3445
(lp3446
F3.6
aI1
asS'Bo-ra Hwang'
p3447
(lp3448
F5.3
aI1
asS'Adrian Bowley'
p3449
(lp3450
F7.7
aI1
asS'Shane Brolly'
p3451
(lp3452
F4.2
aI1
asS'Ronny Dayag'
p3453
(lp3454
F8.0
aI1
asS'Rachael Harris'
p3455
(lp3456
F6.2
aI1
asS'Christopher Kirby'
p3457
(lp3458
F7.4
aI1
asS'Nancy P. Corbo'
p3459
(lp3460
F3.4
aI1
asS'David Ames'
p3461
(lp3462
F5.9
aI1
asS'Ry\xc3\xb4 Kase'
p3463
(lp3464
F7.9
aI1
asS'Moses Lim'
p3465
(lp3466
F6.0
aI1
asS'Idris Elba'
p3467
(lp3468
F5.875
aI4
asS'Jason Leith'
p3469
(lp3470
F6.2
aI1
asS'Leon Lai'
p3471
(lp3472
F6.8
aI1
asS'Dustin Bollinger'
p3473
(lp3474
F7.5
aI1
asS'Jason Biggs'
p3475
(lp3476
F5.550000000000001
aI2
asS'Zach Cregger'
p3477
(lp3478
F5.1
aI1
asS'Teddy Geiger'
p3479
(lp3480
F6.2
aI1
asS'Empress Farah'
p3481
(lp3482
F7.4
aI1
asS'Josef Altin'
p3483
(lp3484
F7.7
aI1
asS'Stephen Fung'
p3485
(lp3486
F5.0
aI1
asS'Lahmard J. Tate'
p3487
(lp3488
F5.3
aI1
asS'Sari Lennick'
p3489
(lp3490
F7.0
aI1
asS'Myron Waldman'
p3491
(lp3492
F6.9
aI1
asS'Dave Foley'
p3493
(lp3494
F4.5
aI1
asS'Monica Arnold'
p3495
(lp3496
F5.9
aI1
asS'Christina Aguilera'
p3497
(lp3498
F6.4
aI1
asS'Mena Suvari'
p3499
(lp3500
F5.6
aI1
asS'Jason Lee'
p3501
(lp3502
F4.866666666666667
aI3
asS'Joseph Fiennes'
p3503
(lp3504
F6.5
aI2
asS'Zachary Quinto'
p3505
(lp3506
F8.0
aI1
asS'Anh Hong'
p3507
(lp3508
F6.0
aI1
asS'Jianyong Chen'
p3509
(lp3510
F6.9
aI1
asS'Longyin Hu'
p3511
(lp3512
F7.3
aI1
asS'Rani Mukerji'
p3513
(lp3514
F5.7
aI2
asS'Daniel Tay'
p3515
(lp3516
F2.8
aI1
asS'Kristin Chenoweth'
p3517
(lp3518
F4.9
aI1
asS'Simon Reynolds'
p3519
(lp3520
F5.9
aI1
asS'Ry\xc3\xbbki Nishimoto'
p3521
(lp3522
F6.4
aI1
asS'Paul Popowich'
p3523
(lp3524
F5.1
aI1
asS'Ariel Schulman'
p3525
(lp3526
F7.1
aI1
asS'Jennifer Connelly'
p3527
(lp3528
F6.95
aI4
asS'Benjamin Bratt'
p3529
(lp3530
F6.4
aI1
asS'So-ri Moon'
p3531
(lp3532
F5.550000000000001
aI2
asS'Anthony Mackie'
p3533
(lp3534
F7.1
aI1
asS'Jung-hae Oh'
p3535
(lp3536
F6.7
aI1
asS'Fran\xc3\xa7ois Berl\xc3\xa9and'
p3537
(lp3538
F6.85
aI2
asS'Michael DeLorenzo'
p3539
(lp3540
F4.8
aI1
asS'Amanda Peet'
p3541
(lp3542
F6.35
aI2
asS'Nadine Labaki'
p3543
(lp3544
F7.2
aI1
asS'Ernst Jacobi'
p3545
(lp3546
F7.8
aI1
asS'Jonathan Haagensen'
p3547
(lp3548
F7.3
aI1
asS'Dina Meyer'
p3549
(lp3550
F3.9
aI1
asS'Kevin Dunn'
p3551
(lp3552
F6.0
aI1
asS'Nadir Saribacak'
p3553
(lp3554
F7.5
aI1
asS'Ewan McGregor'
p3555
(lp3556
F6.6000000000000005
aI7
asS'Chlo\xc3\xab Sevigny'
p3557
(lp3558
F5.8
aI1
asS'John Arcilla'
p3559
(lp3560
F5.8
aI1
asS'Ben Affleck'
p3561
(lp3562
F6.6
aI5
asS'Tina Holmes'
p3563
(lp3564
F7.9
aI1
asS'Robert Capron'
p3565
(lp3566
F6.2
aI1
asS'Salma Hayek'
p3567
(lp3568
F6.0
aI3
asS'Andrea Riseborough'
p3569
(lp3570
F7.2
aI1
asS'Natasha Yarovenko'
p3571
(lp3572
F6.2
aI1
asS'Mitch Morris'
p3573
(lp3574
F5.0
aI1
asS'Jack Nicholson'
p3575
(lp3576
F7.066666666666666
aI3
asS'Hae-in Kim'
p3577
(lp3578
F6.1
aI1
asS'Sahaj Dumpleton'
p3579
(lp3580
F6.5
aI1
asS'J. Michael Tatum'
p3581
(lp3582
F8.1
aI1
asS'Nikki SooHoo'
p3583
(lp3584
F6.4
aI1
asS'Gary Sinise'
p3585
(lp3586
F6.2
aI1
asS'Rose Byrne'
p3587
(lp3588
F6.300000000000001
aI2
asS'Natalie Press'
p3589
(lp3590
F6.9
aI1
asS'John Ortiz'
p3591
(lp3592
F4.7
aI1
asS'Colm Meaney'
p3593
(lp3594
F7.5
aI2
asS'Vimala Pons'
p3595
(lp3596
F5.3
aI1
asS'Robert Hoffman'
p3597
(lp3598
F6.2
aI1
asS'Mncedisi Shabangu'
p3599
(lp3600
F6.7
aI1
asS'Katy Haywood'
p3601
(lp3602
F6.1
aI1
asS'Jun-ho Heo'
p3603
(lp3604
F6.6
aI2
asS'Shreyas Talpade'
p3605
(lp3606
F6.3
aI3
asS'Nico Le Phat Tan'
p3607
(lp3608
F5.7
aI1
asS'Sarah Butler'
p3609
(lp3610
F6.3
aI1
asS'Alex Ferris'
p3611
(lp3612
F7.1
aI1
asS'Joanna JoJo Levesque'
p3613
(lp3614
F5.4
aI2
asS'Rhyon Nicole Brown'
p3615
(lp3616
F4.9
aI1
asS'Michel Beaudry'
p3617
(lp3618
F7.0
aI1
asS'Janette Scott'
p3619
(lp3620
F6.5
aI1
asS'Rupert Everett'
p3621
(lp3622
F6.35
aI2
asS'John Carroll Lynch'
p3623
(lp3624
F5.6
aI1
asS'Seung-mok Yoo'
p3625
(lp3626
F4.4
aI1
asS'Claude Lul\xc3\xa9'
p3627
(lp3628
F6.9
aI1
asS'Naoto Ogata'
p3629
(lp3630
F6.1
aI1
asS'Ji-Yeon Park'
p3631
(lp3632
F7.3
aI1
asS'Seong-woo Bae'
p3633
(lp3634
F6.3
aI1
asS'Kang-hee Choi'
p3635
(lp3636
F6.4
aI1
asS'Sharlto Copley'
p3637
(lp3638
F8.0
aI1
asS'Joshua DesRoches'
p3639
(lp3640
F3.2
aI1
asS'Catherine B\xc3\xa9gin'
p3641
(lp3642
F7.1
aI1
asS'Yuriy Berkun'
p3643
(lp3644
F7.0
aI1
asS'Tammy Blanchard'
p3645
(lp3646
F6.85
aI2
asS'Alyssa Milano'
p3647
(lp3648
F6.0
aI1
asS'Michelle Lee'
p3649
(lp3650
F7.0
aI1
asS'Danuta Stenka'
p3651
(lp3652
F7.0
aI1
asS'Kevin Corrigan'
p3653
(lp3654
F6.85
aI2
asS'Madhavan'
p3655
(lp3656
F8.4
aI1
asS'Thomas D. Mahard'
p3657
(lp3658
F7.2
aI1
asS'Manami Konishi'
p3659
(lp3660
F6.8
aI2
asS'Kenny Ortega'
p3661
(lp3662
F2.3
aI1
asS'Raju Sundaram'
p3663
(lp3664
F6.0
aI1
asS'Darius Rose'
p3665
(lp3666
F5.7
aI1
asS'Aamir Khan'
p3667
(lp3668
F7.960000000000001
aI5
asS'Tanya Crumel'
p3669
(lp3670
F6.9
aI1
asS'Kazue Fukiishi'
p3671
(lp3672
F6.699999999999999
aI2
asS'Kim Coates'
p3673
(lp3674
F5.9
aI1
asS'Jessica Alba'
p3675
(lp3676
F6.119999999999999
aI5
asS'Jiao Xu'
p3677
(lp3678
F6.5
aI1
asS'Clea DuVall'
p3679
(lp3680
F5.8
aI1
asS'Sorapong Chatree'
p3681
(lp3682
F6.2
aI1
asS'Dieter Laser'
p3683
(lp3684
F4.5
aI1
asS'Texas Battle'
p3685
(lp3686
F5.5
aI1
asS'Karen Black'
p3687
(lp3688
F6.4
aI1
asS'Boris Kodjoe'
p3689
(lp3690
F5.233333333333333
aI3
asS'Gill Gayle'
p3691
(lp3692
F6.4
aI1
asS'David Threlfall'
p3693
(lp3694
F7.2
aI1
asS'Tim Guinee'
p3695
(lp3696
F6.4
aI1
asS'Tamela J. Mann'
p3697
(lp3698
F4.0
aI1
asS'Ranvir Shorey'
p3699
(lp3700
F3.9
aI1
asS'James Marsden'
p3701
(lp3702
F6.025
aI4
asS'John Bourke'
p3703
(lp3704
F2.0
aI1
asS'Bowen Duan'
p3705
(lp3706
F6.5
aI1
asS'Kevin Conroy'
p3707
(lp3708
F6.8
aI1
asS'Danny Dyer'
p3709
(lp3710
F4.75
aI2
asS'Eric Schlosser'
p3711
(lp3712
F7.9
aI1
asS'Kristen Wiig'
p3713
(lp3714
F5.666666666666667
aI3
asS'Chalapathi Rao'
p3715
(lp3716
F4.6
aI1
asS'Tom Cavanagh'
p3717
(lp3718
F5.233333333333333
aI3
asS'Wei Zhao'
p3719
(lp3720
F7.0
aI1
asS'Georgia Groome'
p3721
(lp3722
F7.0
aI1
asS'Manoush'
p3723
(lp3724
F5.0
aI1
asS'Kambiz Atabai'
p3725
(lp3726
F7.4
aI1
asS'Mi-ne Jang'
p3727
(lp3728
F6.7
aI1
asS'Kal Penn'
p3729
(lp3730
F2.3
aI1
asS'Evan McGuire'
p3731
(lp3732
F7.7
aI1
asS'E. Quincy Sloan'
p3733
(lp3734
F5.9
aI1
asS'Ken Byrnes'
p3735
(lp3736
F6.1
aI1
asS'Christopher Reid'
p3737
(lp3738
F2.1
aI1
asS'Coyote'
p3739
(lp3740
F5.6
aI1
asS'Yukari Fujimoto'
p3741
(lp3742
F5.0
aI1
asS'Soledad Villamil'
p3743
(lp3744
F8.2
aI1
asS'Sean Harris'
p3745
(lp3746
F5.8
aI1
asS'Patrick Mofokeng'
p3747
(lp3748
F7.4
aI1
asS'Amrita Arora'
p3749
(lp3750
F3.5
aI1
asS'Meryl Streep'
p3751
(lp3752
F6.633333333333333
aI6
asS'Vanessa Redgrave'
p3753
(lp3754
F6.9
aI2
asS'Ted Danson'
p3755
(lp3756
F5.8
aI1
asS'Anna Madeley'
p3757
(lp3758
F6.85
aI2
asS'Mark Ryder'
p3759
(lp3760
F6.7
aI1
asS'Amy Adams'
p3761
(lp3762
F7.257142857142857
aI7
asS'Leslie Mann'
p3763
(lp3764
F6.7
aI2
asS'Nia Long'
p3765
(lp3766
F4.3
aI2
asS'Gary G. Thang Johnson'
p3767
(lp3768
F1.9
aI1
asS'Bingyan Yan'
p3769
(lp3770
F7.3
aI1
asS'Erika Toda'
p3771
(lp3772
F7.4
aI1
asS'Sofia Helin'
p3773
(lp3774
F6.6
aI1
asS'Adam Herschman'
p3775
(lp3776
F6.5
aI1
asS'Diane Kruger'
p3777
(lp3778
F6.8
aI4
asS'Steve Bastoni'
p3779
(lp3780
F5.9
aI1
asS'Mike Nawrocki'
p3781
(lp3782
F5.7
aI1
asS'Colby Trane'
p3783
(lp3784
F5.5
aI1
asS'Edward Burns'
p3785
(lp3786
F6.2
aI1
asS'Rudy Blomme'
p3787
(lp3788
F8.0
aI1
asS'Kelli Garner'
p3789
(lp3790
F5.1
aI1
asS'Y\xc3\xbbji Oda'
p3791
(lp3792
F5.4
aI1
asS'Eason Chan'
p3793
(lp3794
F6.5
aI1
asS'Tracy Morgan'
p3795
(lp3796
F4.949999999999999
aI2
asS'Adam Baldwin'
p3797
(lp3798
F7.1
aI1
asS'Cullet Eric'
p3799
(lp3800
F4.3
aI1
asS'Michael Cerveris'
p3801
(lp3802
F5.6
aI1
asS'Yildiz K\xc3\xbclt\xc3\xbcr'
p3803
(lp3804
F6.9
aI1
asS'Gerry Bednob'
p3805
(lp3806
F6.6
aI1
asS'Toby Keith'
p3807
(lp3808
F6.2
aI1
asS'Khalid Abdalla'
p3809
(lp3810
F7.6
aI1
asS'Lembit Ulfsak'
p3811
(lp3812
F7.2
aI1
asS'Roscoe Lee Browne'
p3813
(lp3814
F5.8
aI1
asS'Emir Kusturica'
p3815
(lp3816
F7.0
aI1
asS'Zulay Henao'
p3817
(lp3818
F5.6
aI1
asS'Kahoe Hon'
p3819
(lp3820
F7.3
aI1
asS'Christopher Reeve'
p3821
(lp3822
F7.8
aI1
asS'Christian Friedel'
p3823
(lp3824
F7.8
aI1
asS'Neil Nitin Mukesh'
p3825
(lp3826
F5.9
aI2
asS'Kil-kang Ahn'
p3827
(lp3828
F5.9
aI2
asS'Halley Feiffer'
p3829
(lp3830
F6.3
aI1
asS'Hye-gyeong Yu'
p3831
(lp3832
F5.6
aI1
asS'Matt OLeary'
p3833
(lp3834
F4.9
aI1
asS'Jemaine Clement'
p3835
(lp3836
F6.35
aI2
asS'Chutcha Rujinanon'
p3837
(lp3838
F6.1
aI1
asS'Claire van der Boom'
p3839
(lp3840
F6.4
aI1
asS'Tae-hyun Cha'
p3841
(lp3842
F6.3
aI1
asS'Marianna Palka'
p3843
(lp3844
F6.5
aI1
asS'Blair Underwood'
p3845
(lp3846
F5.0
aI1
asS'Chase Masterson'
p3847
(lp3848
F5.4
aI1
asS'Kagiso Kuypers'
p3849
(lp3850
F8.0
aI1
asS'Jae-wan Jo'
p3851
(lp3852
F4.3
aI1
asS'Tim Allen'
p3853
(lp3854
F5.75
aI4
asS'Georgia Blake'
p3855
(lp3856
F4.6
aI1
asS'Jensen Ackles'
p3857
(lp3858
F8.0
aI1
asS'Tahar Rahim'
p3859
(lp3860
F7.9
aI1
asS'Young-woon Kim'
p3861
(lp3862
F5.8
aI1
asS'Lucky Lehrer'
p3863
(lp3864
F7.4
aI1
asS'Vivek'
p3865
(lp3866
F3.8
aI1
asS'Anna Simpson'
p3867
(lp3868
F6.6
aI1
asS'Zach Gilford'
p3869
(lp3870
F5.449999999999999
aI2
asS'Simon Stone'
p3871
(lp3872
F6.2
aI1
asS'Eliza Swenson'
p3873
(lp3874
F1.7
aI1
asS'Oscar A. Diaz'
p3875
(lp3876
F6.0
aI1
asS'Caryn Peterson'
p3877
(lp3878
F6.0
aI1
asS'Thomas Birch'
p3879
(lp3880
F3.0
aI1
asS'Jessica Stroup'
p3881
(lp3882
F6.9
aI1
asS'Halina Reijn'
p3883
(lp3884
F7.8
aI1
asS'Diora Baird'
p3885
(lp3886
F4.75
aI2
asS'Jack Black'
p3887
(lp3888
F6.225
aI8
asS'Lisa Griffiths'
p3889
(lp3890
F6.5
aI1
asS'Tim Preece'
p3891
(lp3892
F7.2
aI1
asS'Liu Haochen'
p3893
(lp3894
F6.8
aI1
asS'Kyle Gass'
p3895
(lp3896
F6.8
aI1
asS'Rachel Blanchard'
p3897
(lp3898
F5.6
aI1
asS'Rain Tolk'
p3899
(lp3900
F7.3
aI1
asS'Glenn Morshower'
p3901
(lp3902
F3.4
aI1
asS'Ye Liu'
p3903
(lp3904
F7.7
aI1
asS'Nicole Oliver'
p3905
(lp3906
F6.4
aI1
asS'Yamaris Latorre'
p3907
(lp3908
F6.1
aI1
asS'Seung-ryong Ryu'
p3909
(lp3910
F6.6
aI2
asS'Vin Diesel'
p3911
(lp3912
F6.35
aI2
asS'Lambert Wilson'
p3913
(lp3914
F6.4
aI2
asS'Surachai Sombutchareon'
p3915
(lp3916
F5.5
aI1
asS'Sanaa Lathan'
p3917
(lp3918
F6.0
aI2
asS'Abbey Stirling'
p3919
(lp3920
F4.9
aI1
asS'Janet-Laine Green'
p3921
(lp3922
F5.1
aI1
asS'Tony Jaa'
p3923
(lp3924
F6.2
aI1
asS'Emmanuelle Vaugier'
p3925
(lp3926
F3.1
aI1
asS'Taraji P. Henson'
p3927
(lp3928
F6.199999999999999
aI2
asS'Max Kasch'
p3929
(lp3930
F4.8
aI1
asS'Juhan Ulfsak'
p3931
(lp3932
F7.3
aI1
asS'Jane Carr'
p3933
(lp3934
F5.0
aI1
asS'Brandon Bernard Benton'
p3935
(lp3936
F5.9
aI1
asS'Jake Hames'
p3937
(lp3938
F5.1
aI1
asS'Michael Vartan'
p3939
(lp3940
F6.2
aI1
asS'Manolo Cardona'
p3941
(lp3942
F3.7
aI1
asS'Jesse Bradford'
p3943
(lp3944
F7.1
aI1
asS'Marcia DeBonis'
p3945
(lp3946
F6.5
aI1
asS'Wenzhao He'
p3947
(lp3948
F5.2
aI1
asS'Traci Lords'
p3949
(lp3950
F3.9
aI1
asS'Sonam Kapoor'
p3951
(lp3952
F5.4
aI1
asS'Zoe Saldana'
p3953
(lp3954
F7.15
aI2
asS'Andy Nyman'
p3955
(lp3956
F7.0
aI2
asS'Joe Odagiri'
p3957
(lp3958
F5.3
aI3
asS'\xc3\x93scar Jaenada'
p3959
(lp3960
F6.2
aI1
asS'Jamie Lee Curtis'
p3961
(lp3962
F4.75
aI2
asS'Sophie Anna Everhard'
p3963
(lp3964
F5.4
aI1
asS'Izzy Meikle-Small'
p3965
(lp3966
F7.2
aI1
asS'Christian Contreras'
p3967
(lp3968
F4.6
aI1
asS'Stephen Wight'
p3969
(lp3970
F6.2
aI1
asS'K\xc3\xb4ichi Sat\xc3\xb4'
p3971
(lp3972
F6.3
aI1
asS'Ferran Terraza'
p3973
(lp3974
F7.5
aI1
asS'Paul Smits'
p3975
(lp3976
F7.3
aI1
asS'Ryan Devlin'
p3977
(lp3978
F5.9
aI1
asS'Sam Ball'
p3979
(lp3980
F5.6
aI1
asS'Aleksandar Mikic'
p3981
(lp3982
F7.7
aI1
asS'Angeliki Papoulia'
p3983
(lp3984
F7.3
aI1
asS'Paul Dano'
p3985
(lp3986
F7.0
aI2
asS'Ken Foree'
p3987
(lp3988
F6.1
aI1
asS'John Lynch'
p3989
(lp3990
F6.4
aI1
asS'Brady Smith'
p3991
(lp3992
F6.2
aI1
asS'Scott Porter'
p3993
(lp3994
F6.45
aI2
asS'Mohamed Akhzam'
p3995
(lp3996
F7.5
aI1
asS'Helena-Lia Tachovsk\xc3\xa1'
p3997
(lp3998
F6.2
aI1
asS'Saikumar'
p3999
(lp4000
F6.7
aI1
asS'Justin Salinger'
p4001
(lp4002
F6.0
aI1
asS'Sanna El-Agha'
p4003
(lp4004
F7.8
aI1
asS'Giordano Formenti'
p4005
(lp4006
F6.5
aI1
asS'Scarlett Johansson'
p4007
(lp4008
F6.540000000000001
aI5
asS'Crusoe Kurddal'
p4009
(lp4010
F7.0
aI1
asS'Bin Won'
p4011
(lp4012
F7.9
aI1
asS'Asia Argento'
p4013
(lp4014
F5.1
aI1
asS'Golnaz Farmani'
p4015
(lp4016
F7.3
aI1
asS'Jeff Kahn'
p4017
(lp4018
F7.0
aI1
asS'Sergo Vares'
p4019
(lp4020
F6.8
aI1
asS'Brina Palencia'
p4021
(lp4022
F8.1
aI1
asS'Paula Solvak'
p4023
(lp4024
F8.1
aI1
asS'Roger Allam'
p4025
(lp4026
F6.800000000000001
aI2
asS'Mick Jagger'
p4027
(lp4028
F7.2
aI1
asS'Maricel \xc3\x81lvarez'
p4029
(lp4030
F7.5
aI1
asS'Fred Melamed'
p4031
(lp4032
F7.0
aI1
asS'Carmen Maura'
p4033
(lp4034
F7.6
aI1
asS'Robin Ballard'
p4035
(lp4036
F6.1
aI1
asS'Mukesh Rishi'
p4037
(lp4038
F7.3
aI1
asS'Romain Duris'
p4039
(lp4040
F6.85
aI2
asS'Amanda Seyfried'
p4041
(lp4042
F6.05
aI4
asS'Sebastien Andrieu'
p4043
(lp4044
F4.4
aI1
asS'Jonah Blechman'
p4045
(lp4046
F5.0
aI1
asS'Stacy Chbosky'
p4047
(lp4048
F6.1
aI1
asS'Jorma Tommila'
p4049
(lp4050
F6.7
aI1
asS'Dyllan Christopher'
p4051
(lp4052
F5.1
aI1
asS'Guillermo Estrella'
p4053
(lp4054
F7.5
aI1
asS'Isla Fisher'
p4055
(lp4056
F6.449999999999999
aI2
asS'Rick Gonzalez'
p4057
(lp4058
F4.7
aI1
asS'Fred Tatasciore'
p4059
(lp4060
F6.0
aI1
asS'Scout Taylor-Compton'
p4061
(lp4062
F5.1
aI1
asS'Michael Buscemi'
p4063
(lp4064
F6.9
aI1
asS'Ohad Knoller'
p4065
(lp4066
F7.4
aI1
asS'Miguel Ferrer'
p4067
(lp4068
F7.0
aI1
asS'Erwan van Buuren'
p4069
(lp4070
F4.8
aI1
asS'Vanessa Lengies'
p4071
(lp4072
F6.4
aI1
asS'Vivian Hsu'
p4073
(lp4074
F6.2
aI1
asS'Eric Winter'
p4075
(lp4076
F6.5
aI1
asS'Stephen Dorff'
p4077
(lp4078
F6.4
aI1
asS'Hyo-ju Han'
p4079
(lp4080
F6.2
aI2
asS'Harris Yulin'
p4081
(lp4082
F6.5
aI1
asS'Robert Baker'
p4083
(lp4084
F6.9
aI1
asS'Marlene Assmann'
p4085
(lp4086
F7.8
aI1
asS'Charlie Tahan'
p4087
(lp4088
F7.166666666666667
aI3
asS'Ashley Schneider'
p4089
(lp4090
F5.0
aI1
asS'Glen Hansard'
p4091
(lp4092
F7.9
aI1
asS'Michael Kelly'
p4093
(lp4094
F7.8
aI1
asS'Rhona Mitra'
p4095
(lp4096
F6.6
aI1
asS'Philip Ettinger'
p4097
(lp4098
F5.7
aI1
asS'Trish Hofmann'
p4099
(lp4100
F7.4
aI1
asS'Jack Taylor'
p4101
(lp4102
F6.9
aI1
asS'Lil Woods'
p4103
(lp4104
F6.1
aI1
asS'Katashi Chen'
p4105
(lp4106
F5.3
aI1
asS'Zach Mills'
p4107
(lp4108
F6.2
aI1
asS'Patrick Dempsey'
p4109
(lp4110
F6.65
aI4
asS'Colin Hanks'
p4111
(lp4112
F6.033333333333334
aI3
asS'Deanna Russo'
p4113
(lp4114
F4.6
aI1
asS'Jin-hee Ji'
p4115
(lp4116
F4.4
aI1
asS'Steve Squyres'
p4117
(lp4118
F7.4
aI1
asS'Kajol'
p4119
(lp4120
F7.6
aI2
asS'Maggie Gyllenhaal'
p4121
(lp4122
F6.35
aI2
asS'Elijah Cummings'
p4123
(lp4124
F7.4
aI1
asS'Raymond J. Barry'
p4125
(lp4126
F3.8
aI1
asS'James Van Der Beek'
p4127
(lp4128
F4.5
aI1
asS'Josh Bolt'
p4129
(lp4130
F7.2
aI1
asS'Kazuyo Asari'
p4131
(lp4132
F5.5
aI1
asS'Cary Elwes'
p4133
(lp4134
F5.6
aI1
asS'Kenichi Matsuyama'
p4135
(lp4136
F6.4
aI1
asS'Eun-ah Ko'
p4137
(lp4138
F5.4
aI1
asS'Juan Gabriel Yacuzzi'
p4139
(lp4140
F7.9
aI1
asS'Arliss Howard'
p4141
(lp4142
F7.1
aI1
asS'Lu Huang'
p4143
(lp4144
F7.35
aI2
asS'Xiaoming Huang'
p4145
(lp4146
F7.6
aI1
asS'Dustin Fitzsimons'
p4147
(lp4148
F7.7
aI1
asS'Michelle Nolden'
p4149
(lp4150
F7.1
aI1
asS'Katja Riemann'
p4151
(lp4152
F5.5
aI1
asS'Mark Webber'
p4153
(lp4154
F6.8999999999999995
aI3
asS'Joshua Leonard'
p4155
(lp4156
F6.1
aI1
asS'Jimmy Fallon'
p4157
(lp4158
F4.6
aI2
asS'Morgan Freeman'
p4159
(lp4160
F6.7555555555555555
aI9
asS'Om Puri'
p4161
(lp4162
F6.449999999999999
aI2
asS'Daniel Radcliffe'
p4163
(lp4164
F7.5
aI2
asS'Taylor Handley'
p4165
(lp4166
F5.9
aI1
asS'Tim Bellow'
p4167
(lp4168
F7.0
aI1
asS'Lou Romano'
p4169
(lp4170
F8.0
aI1
asS'Matthew Macfadyen'
p4171
(lp4172
F7.4
aI1
asS'Mukta Barve'
p4173
(lp4174
F7.3
aI1
asS'Tuba Karadayi'
p4175
(lp4176
F7.5
aI1
asS'Amber Heard'
p4177
(lp4178
F6.1
aI2
asS'Christoph Waltz'
p4179
(lp4180
F8.3
aI1
asS'Vanessa Lachey'
p4181
(lp4182
F1.9
aI1
asS'Durul Bazan'
p4183
(lp4184
F7.0
aI1
asS'Eddie Baroo'
p4185
(lp4186
F6.6
aI1
asS'Toby Jones'
p4187
(lp4188
F6.75
aI2
asS'Tony Ocana'
p4189
(lp4190
F7.4
aI1
asS'Richard Stratton'
p4191
(lp4192
F6.3
aI1
asS'Nick Chinlund'
p4193
(lp4194
F4.4
aI1
asS'Sora Aoi'
p4195
(lp4196
F6.8
aI1
asS'Alex Rocco'
p4197
(lp4198
F7.1
aI1
asS'Jacobo Morales'
p4199
(lp4200
F6.1
aI1
asS'Kevin P. McCarthy'
p4201
(lp4202
F7.2
aI1
asS'Patcharasri Benjamas'
p4203
(lp4204
F6.4
aI1
asS'Miranda Bailey'
p4205
(lp4206
F5.6
aI1
asS'Stephen Chang'
p4207
(lp4208
F3.5
aI1
asS'Ayrton Senna'
p4209
(lp4210
F8.6
aI1
asS'Jurnee Smollett-Bell'
p4211
(lp4212
F7.6
aI1
asS'Jon Gries'
p4213
(lp4214
F7.9
aI1
asS'Olivier Rabourdin'
p4215
(lp4216
F7.2
aI1
asS'Ciar\xc3\xa1n Hinds'
p4217
(lp4218
F6.550000000000001
aI2
asS'Georgie Henley'
p4219
(lp4220
F6.449999999999999
aI2
asS'Justin Theroux'
p4221
(lp4222
F7.0
aI1
asS'Emmylou Harris'
p4223
(lp4224
F7.8
aI1
asS'Harry Connick Jr.'
p4225
(lp4226
F5.8
aI2
asS'Nantarat Sawaddikul'
p4227
(lp4228
F7.5
aI1
asS'Josh Peck'
p4229
(lp4230
F7.0
aI1
asS'Arfan Usman'
p4231
(lp4232
F7.5
aI1
asS'Lawrence Chou'
p4233
(lp4234
F6.3
aI2
asS'Seong-hun Cheon'
p4235
(lp4236
F5.7
aI1
asS'Rajat Barmecha'
p4237
(lp4238
F8.3
aI1
asS'Vanessa Paradis'
p4239
(lp4240
F6.8
aI1
asS'John Michael Higgins'
p4241
(lp4242
F6.199999999999999
aI2
asS'Jennifer Saunders'
p4243
(lp4244
F7.7
aI1
asS'Zhao Rui'
p4245
(lp4246
F6.8
aI1
asS'Baron Hill'
p4247
(lp4248
F7.4
aI1
asS'Dennis Quaid'
p4249
(lp4250
F6.333333333333333
aI6
asS'Bobby Coleman'
p4251
(lp4252
F6.3
aI2
asS'Simon Yam'
p4253
(lp4254
F8.1
aI1
asS'Dong-hae Lee'
p4255
(lp4256
F5.8
aI1
asS'Alistair McGowan'
p4257
(lp4258
F5.9
aI1
asS'Gerard Butler'
p4259
(lp4260
F6.671428571428571
aI7
asS'Philip Bretherton'
p4261
(lp4262
F4.5
aI1
asS'Keith Morris'
p4263
(lp4264
F7.4
aI1
asS'Maria Popistasu'
p4265
(lp4266
F7.0
aI1
asS'Nanase Hoshii'
p4267
(lp4268
F4.9
aI1
asS'Kerry Livgren'
p4269
(lp4270
F5.4
aI1
asS'Kyle Schmid'
p4271
(lp4272
F5.1
aI1
asS'Julia Ormond'
p4273
(lp4274
F6.033333333333334
aI3
asS'Robert Webb'
p4275
(lp4276
F6.0
aI1
asS'Vangelis Mourikis'
p4277
(lp4278
F6.2
aI1
asS'Meredith MacNeill'
p4279
(lp4280
F5.8
aI1
asS'Sami Bouajila'
p4281
(lp4282
F6.7
aI1
asS'Rolf Kristian Larsen'
p4283
(lp4284
F6.4
aI1
asS'Freddy Rodr\xc3\xadguez'
p4285
(lp4286
F7.2
aI1
asS'Juri Ueno'
p4287
(lp4288
F7.4
aI1
asS'Juliette Binoche'
p4289
(lp4290
F6.9750000000000005
aI4
asS'Imelda Staunton'
p4291
(lp4292
F7.1
aI2
asS'Clive Owen'
p4293
(lp4294
F7.175
aI4
asS'Ving Rhames'
p4295
(lp4296
F6.35
aI2
asS'Lucy Liu'
p4297
(lp4298
F6.15
aI2
asS'Jason Patric'
p4299
(lp4300
F7.2
aI1
asS'Amber Tamblyn'
p4301
(lp4302
F5.65
aI2
asS'Kevin Tyell'
p4303
(lp4304
F6.8
aI1
asS'Pimolwan Suphayang'
p4305
(lp4306
F6.4
aI1
asS'Lei Huang'
p4307
(lp4308
F6.5
aI1
asS'Reese Witherspoon'
p4309
(lp4310
F6.075
aI4
asS'Joaquin Phoenix'
p4311
(lp4312
F6.6000000000000005
aI3
asS'Mitsuko Baish\xc3\xb4'
p4313
(lp4314
F7.1
aI1
asS'Armand Schultz'
p4315
(lp4316
F6.5
aI1
asS'Y\xc3\xbbko Nakamura'
p4317
(lp4318
F5.7
aI1
asS'Niklaus Lange'
p4319
(lp4320
F5.1
aI1
asS'Julien Monney'
p4321
(lp4322
F7.4
aI1
asS'Nora Navas'
p4323
(lp4324
F7.0
aI1
asS'Seung-beom Ryu'
p4325
(lp4326
F6.3
aI1
asS'Jeanine Basinger'
p4327
(lp4328
F6.4
aI1
asS'Charlie Rowe'
p4329
(lp4330
F7.300000000000001
aI2
asS'Alice Eve'
p4331
(lp4332
F6.6
aI2
asS'Jos\xc3\xa9 Luis G\xc3\xb3mez'
p4333
(lp4334
F7.2
aI1
asS'Alexis Dziena'
p4335
(lp4336
F5.6
aI1
asS'Ellen Page'
p4337
(lp4338
F7.3500000000000005
aI6
asS'Vince Vaughn'
p4339
(lp4340
F5.625
aI4
asS'Tim Huck'
p4341
(lp4342
F5.3
aI1
asS'Moises Arias'
p4343
(lp4344
F7.7
aI1
asS'David Hasselhoff'
p4345
(lp4346
F6.4
aI1
asS'Robert Orr'
p4347
(lp4348
F6.1
aI1
asS'Hanyu Zhang'
p4349
(lp4350
F7.1
aI2
asS'Dakota Goyo'
p4351
(lp4352
F6.8
aI1
asS'Hu Gao'
p4353
(lp4354
F7.3
aI1
asS'Nick Thurston'
p4355
(lp4356
F6.9
aI1
asS'Kane Hodder'
p4357
(lp4358
F5.4
aI1
asS'Akihiro Kitamura'
p4359
(lp4360
F4.5
aI1
asS'Scotch Ellis Loring'
p4361
(lp4362
F5.5
aI1
asS'Bingbing Li'
p4363
(lp4364
F6.2
aI1
asS'Matthew Fox'
p4365
(lp4366
F6.85
aI2
asS'Keith David'
p4367
(lp4368
F5.85
aI2
asS'Esti Ginzburg'
p4369
(lp4370
F5.7
aI1
asS'Alessandro Juliani'
p4371
(lp4372
F6.2
aI1
asS'Sarah-Jeanne Labrosse'
p4373
(lp4374
F7.7
aI1
asS'Adam Sandler'
p4375
(lp4376
F6.316666666666666
aI6
asS'Mark Denham'
p4377
(lp4378
F7.7
aI1
asS'Jun-yeong Jang'
p4379
(lp4380
F7.3
aI1
asS'Teijo Eloranta'
p4381
(lp4382
F5.3
aI1
asS'Steven Michael Quezada'
p4383
(lp4384
F6.0
aI1
asS'Zohra Segal'
p4385
(lp4386
F6.8
aI1
asS'Landon Liboiron'
p4387
(lp4388
F4.9
aI1
asS'Max von Sydow'
p4389
(lp4390
F7.15
aI2
asS'Georgie Parker'
p4391
(lp4392
F6.2
aI1
asS'Je-mun Yun'
p4393
(lp4394
F7.0
aI1
asS'Joseph George Mendicino'
p4395
(lp4396
F4.6
aI1
asS'DeShawn Washington'
p4397
(lp4398
F6.5
aI1
asS'Alexandra Daddario'
p4399
(lp4400
F5.9
aI1
asS'Mutsuo Yoshioka'
p4401
(lp4402
F6.6
aI1
asS'Olivier Martinez'
p4403
(lp4404
F5.5
aI1
asS'Cassandra Scerbo'
p4405
(lp4406
F5.3
aI1
asS'Shannon Woodward'
p4407
(lp4408
F3.8
aI1
asS'Josh Hartnett'
p4409
(lp4410
F6.733333333333333
aI3
asS'Clotilde Mollet'
p4411
(lp4412
F7.1
aI1
asS'Katrina Bowden'
p4413
(lp4414
F7.6
aI1
asS'Nicholas Gonzalez'
p4415
(lp4416
F4.5
aI1
asS'Delfina Varni'
p4417
(lp4418
F5.2
aI1
asS'Fuzzy Fantabulous'
p4419
(lp4420
F6.8
aI1
asS'Patrick Wilson'
p4421
(lp4422
F6.5249999999999995
aI4
asS'Jorma Taccone'
p4423
(lp4424
F6.0
aI2
asS'Keisha Castle-Hughes'
p4425
(lp4426
F6.8
aI1
asS'Ben Falcone'
p4427
(lp4428
F5.8
aI1
asS'Karen David'
p4429
(lp4430
F6.6
aI1
asS'Alfred Molina'
p4431
(lp4432
F6.85
aI4
asS'Nakhorn Silachai'
p4433
(lp4434
F4.4
aI1
asS'Hippolyte Girardot'
p4435
(lp4436
F6.8
aI1
asS'Sebastian Gacki'
p4437
(lp4438
F2.9
aI1
asS'Siraphan Wattanajinda'
p4439
(lp4440
F6.9
aI1
asS'Helena Stoddard'
p4441
(lp4442
F7.1
aI1
asS'Eanna Hardwicke'
p4443
(lp4444
F6.2
aI1
asS'Xuan Dong'
p4445
(lp4446
F7.4
aI1
asS'Nikki Reed'
p4447
(lp4448
F5.9
aI1
asS'Rick Wakeman'
p4449
(lp4450
F7.8
aI1
asS'Mark Strong'
p4451
(lp4452
F7.333333333333333
aI3
asS'John C. McGinley'
p4453
(lp4454
F4.0
aI1
asS'Yasmin Paige'
p4455
(lp4456
F7.3
aI1
asS'Devon Aoki'
p4457
(lp4458
F6.199999999999999
aI2
asS'Thomas Kretschmann'
p4459
(lp4460
F6.2
aI1
asS'Adam Leadbeater'
p4461
(lp4462
F3.9
aI1
asS'Sharman Joshi'
p4463
(lp4464
F6.766666666666667
aI3
asS'Mitsuru Fukikoshi'
p4465
(lp4466
F7.1
aI1
asS'Gena Rowlands'
p4467
(lp4468
F6.4
aI1
asS'Erika Sawajiri'
p4469
(lp4470
F6.5
aI1
asS'Tyrese Gibson'
p4471
(lp4472
F6.12
aI5
asS'Haylie Duff'
p4473
(lp4474
F3.9
aI1
asS'Richard Low'
p4475
(lp4476
F7.1
aI1
asS'Jean-Michel Richaud'
p4477
(lp4478
F6.8
aI1
asS'Sydney Rouviere'
p4479
(lp4480
F6.1
aI1
asS'Ivar Brogger'
p4481
(lp4482
F6.1
aI1
asS'Forest Whitaker'
p4483
(lp4484
F6.7
aI6
asS'Max Martini'
p4485
(lp4486
F6.8
aI1
asS'Hie-jin Jang'
p4487
(lp4488
F5.8
aI1
asS'Trevor Gagnon'
p4489
(lp4490
F4.9
aI1
asS'Jackson Bond'
p4491
(lp4492
F5.9
aI1
asS'Isabelle Fuhrman'
p4493
(lp4494
F7.0
aI1
asS'Jim Parrack'
p4495
(lp4496
F5.8
aI1
asS'Gustavo Sumpta'
p4497
(lp4498
F7.2
aI1
asS'Joe Swanberg'
p4499
(lp4500
F6.5
aI1
asS'Doona Bae'
p4501
(lp4502
F7.0
aI1
asS'Jasper Harris'
p4503
(lp4504
F6.0
aI1
asS'Jonathan Brewer'
p4505
(lp4506
F7.8
aI1
asS'I. Gusti Ayu Puspawati'
p4507
(lp4508
F5.7
aI1
asS'Uma Thurman'
p4509
(lp4510
F5.133333333333334
aI3
asS'Sam Worthington'
p4511
(lp4512
F6.900000000000001
aI3
asS'Arthur the Cat'
p4513
(lp4514
F4.8
aI1
asS'Natalie Portman'
p4515
(lp4516
F6.95
aI4
asS'Takako Matsu'
p4517
(lp4518
F7.6
aI2
asS'Michael Carman'
p4519
(lp4520
F6.0
aI1
asS'Nichole Hiltz'
p4521
(lp4522
F5.3
aI1
asS'Wings Hauser'
p4523
(lp4524
F5.8
aI1
asS'Eva Longoria'
p4525
(lp4526
F5.2
aI1
asS'Gary Coleman'
p4527
(lp4528
F4.0
aI1
asS'Eric Lively'
p4529
(lp4530
F4.4
aI1
asS'Ulrich M\xc3\xbche'
p4531
(lp4532
F8.5
aI1
asS'Toni Collette'
p4533
(lp4534
F6.8999999999999995
aI3
asS'Tommi Korpela'
p4535
(lp4536
F6.7
aI1
asS'Shid\xc3\xb4 Nakamura'
p4537
(lp4538
F7.4
aI1
asS'Won-joong Jung'
p4539
(lp4540
F6.1
aI1
asS'Kristen Stewart'
p4541
(lp4542
F5.7
aI5
asS'Tyler Hilton'
p4543
(lp4544
F7.4
aI1
asS'Brad Culver'
p4545
(lp4546
F4.4
aI1
asS'Per Ragnar'
p4547
(lp4548
F8.0
aI1
asS'Godfrey'
p4549
(lp4550
F3.0
aI1
asS'Carla Gugino'
p4551
(lp4552
F5.8
aI5
asS'Harry Hadden-Paton'
p4553
(lp4554
F7.5
aI1
asS'Ji-hyo Song'
p4555
(lp4556
F6.2
aI1
asS'Yeong-ho Kim'
p4557
(lp4558
F6.7
aI1
asS'Antonio Resines'
p4559
(lp4560
F7.7
aI1
asS'Agathe Natanson'
p4561
(lp4562
F7.2
aI1
asS'Philippe Laudenbach'
p4563
(lp4564
F7.2
aI1
asS'Philip Hersh'
p4565
(lp4566
F4.3
aI1
asS'Tom Felton'
p4567
(lp4568
F6.0
aI1
asS'Charlie Watts'
p4569
(lp4570
F7.2
aI1
asS'James Gaddas'
p4571
(lp4572
F6.8
aI1
asS'Michael Stuhlbarg'
p4573
(lp4574
F7.0
aI1
asS'Roy Borrett'
p4575
(lp4576
F3.6
aI1
asS'Adam Boyer'
p4577
(lp4578
F5.9
aI1
asS'Teodorina Bello'
p4579
(lp4580
F6.5
aI1
asS'Petchtai Wongkamlao'
p4581
(lp4582
F5.5
aI1
asS'Bridget Moynahan'
p4583
(lp4584
F5.699999999999999
aI3
asS'Lesley Manville'
p4585
(lp4586
F7.3
aI1
asS'Michelle Gunn'
p4587
(lp4588
F7.8
aI1
asS'Harry Melling'
p4589
(lp4590
F7.6
aI2
asS'Mathew McElhinney'
p4591
(lp4592
F6.7
aI1
asS'Buzz Aldrin'
p4593
(lp4594
F8.1
aI1
asS'Pepita Emmerichs'
p4595
(lp4596
F6.8
aI1
asS'Josh Hutcherson'
p4597
(lp4598
F5.666666666666667
aI3
asS'Satsuki Yukino'
p4599
(lp4600
F7.5
aI1
asS'Angus Macfadyen'
p4601
(lp4602
F4.733333333333333
aI3
asS'Clint Glenn Hummel'
p4603
(lp4604
F2.7
aI1
asS'Til Schweiger'
p4605
(lp4606
F3.1
aI1
asS'Janeane Garofalo'
p4607
(lp4608
F5.3
aI1
asS'Emily Brooke Hands'
p4609
(lp4610
F6.4
aI1
asS'Marcia Jean Kurtz'
p4611
(lp4612
F6.7
aI1
asS'Halleh Seddighzadeh'
p4613
(lp4614
F5.5
aI1
asS'Zin\xc3\xa9dine Zidane'
p4615
(lp4616
F6.4
aI1
asS'Josh Zuckerman'
p4617
(lp4618
F6.6
aI1
asS'Pou-Soi Cheang'
p4619
(lp4620
F6.1
aI1
asS'Larry David'
p4621
(lp4622
F7.2
aI1
asS'Will.i.am'
p4623
(lp4624
F6.7
aI1
asS'Craig T. Nelson'
p4625
(lp4626
F6.7
aI1
asS'Linda Cardellini'
p4627
(lp4628
F7.0
aI1
asS'Greg Andrews'
p4629
(lp4630
F5.9
aI1
asS'Tao Guo'
p4631
(lp4632
F7.300000000000001
aI2
asS'Jay Hernandez'
p4633
(lp4634
F6.0
aI1
asS'Simone Sacchettino'
p4635
(lp4636
F7.0
aI1
asS'Jeff Deyo'
p4637
(lp4638
F5.4
aI1
asS'Adrian Paul'
p4639
(lp4640
F3.1
aI1
asS'Ryan Gosling'
p4641
(lp4642
F7.050000000000001
aI4
asS'Leah Rose'
p4643
(lp4644
F2.7
aI1
asS'Selma Blair'
p4645
(lp4646
F6.0
aI1
asS'Jeff Garlin'
p4647
(lp4648
F7.300000000000001
aI2
asS'Adrianne Palicki'
p4649
(lp4650
F5.5
aI2
asS'Deepika Padukone'
p4651
(lp4652
F3.9
aI1
asS'Kaori Momoi'
p4653
(lp4654
F6.3
aI1
asS'Jackie Tohn'
p4655
(lp4656
F4.5
aI1
asS'Roselyn Sanchez'
p4657
(lp4658
F6.2
aI1
asS'Mark Margolis'
p4659
(lp4660
F7.3
aI1
asS'Ashleigh Ball'
p4661
(lp4662
F4.3
aI1
asS'Julie Dreyfus'
p4663
(lp4664
F5.3
aI1
asS'Mathieu Amalric'
p4665
(lp4666
F7.266666666666667
aI3
asS'Alec Baldwin'
p4667
(lp4668
F6.12
aI5
asS'Jay Chou'
p4669
(lp4670
F6.85
aI2
asS'Justin Long'
p4671
(lp4672
F5.8
aI7
asS'Billie-Suliat Baker'
p4673
(lp4674
F9.0
aI1
asS'Manuela Velasco'
p4675
(lp4676
F7.5
aI1
asS'Robert Downey Jr.'
p4677
(lp4678
F7.177777777777779
aI9
asS'Stan Collymore'
p4679
(lp4680
F4.2
aI1
asS'Tom Cruise'
p4681
(lp4682
F6.625
aI4
asS'Kate Hudson'
p4683
(lp4684
F5.75
aI4
asS'Ellen Crawford'
p4685
(lp4686
F8.0
aI1
asS'Edith Scob'
p4687
(lp4688
F7.3
aI1
asS'Xavier Samuel'
p4689
(lp4690
F4.9
aI1
asS'Gregg Henry'
p4691
(lp4692
F6.5
aI1
asS'Ewen Bremner'
p4693
(lp4694
F7.4
aI1
asS'Molly Stanton'
p4695
(lp4696
F5.1
aI1
asS'Angela Lowe'
p4697
(lp4698
F3.2
aI1
asS'Stanley Chapman'
p4699
(lp4700
F3.0
aI1
asS'Eul-dong Kim'
p4701
(lp4702
F5.8
aI1
asS'Minissha Lamba'
p4703
(lp4704
F5.5
aI1
asS'Ingeborga Dapkunaite'
p4705
(lp4706
F7.0
aI1
asS'Max Riemelt'
p4707
(lp4708
F7.6
aI1
asS'Kelly Gould'
p4709
(lp4710
F6.4
aI1
asS'Jie Du'
p4711
(lp4712
F7.7
aI1
asS'Jada Pinkett Smith'
p4713
(lp4714
F7.1
aI2
asS'Hannah Endicott-Douglas'
p4715
(lp4716
F6.2
aI1
asS'Stephen Chow'
p4717
(lp4718
F6.5
aI1
asS'Mary Elizabeth Winstead'
p4719
(lp4720
F5.8
aI1
asS'Micah Sloat'
p4721
(lp4722
F6.3
aI1
asS'Alan Arkin'
p4723
(lp4724
F6.9
aI4
asS'Crispin Glover'
p4725
(lp4726
F4.3
aI1
asS'Allen Covert'
p4727
(lp4728
F6.15
aI2
asS'John Pyper-Ferguson'
p4729
(lp4730
F4.9
aI1
asS'Frank Wood'
p4731
(lp4732
F6.2
aI1
asS'Amitabh Bachchan'
p4733
(lp4734
F6.4
aI2
asS'Bo-eun Choi'
p4735
(lp4736
F5.6
aI1
asS'Chi Cao'
p4737
(lp4738
F7.4
aI1
asS'William Tapley'
p4739
(lp4740
F5.1
aI1
asS'Orlando Bloom'
p4741
(lp4742
F7.199999999999999
aI2
asS'B\xc3\xb6rje Ahlstedt'
p4743
(lp4744
F6.8
aI1
asS'Eli Roth'
p4745
(lp4746
F7.5
aI3
asS'Alice Krige'
p4747
(lp4748
F6.233333333333334
aI3
asS'Hal Hartley'
p4749
(lp4750
F7.6
aI1
asS'Clifford Ba\xc3\xb1agale'
p4751
(lp4752
F5.9
aI1
asS'Shelly Cole'
p4753
(lp4754
F6.9
aI1
asS'Tiina Tauraite'
p4755
(lp4756
F7.2
aI1
asS'Ranbir Kapoor'
p4757
(lp4758
F5.4
aI1
asS'Michael Harney'
p4759
(lp4760
F4.7
aI1
asS'Shelley Long'
p4761
(lp4762
F6.2
aI1
asS'Dave Barthmuss'
p4763
(lp4764
F7.7
aI1
asS'Steven Spielberg'
p4765
(lp4766
F6.7
aI1
asS'Debora Guetta'
p4767
(lp4768
F8.0
aI1
asS'Michael Hadley'
p4769
(lp4770
F7.4
aI1
asS'J\xc3\xbcrgen Vogel'
p4771
(lp4772
F7.6
aI1
asS'Natasha Charles Parker'
p4773
(lp4774
F4.8
aI1
asS'Rupert Frazer'
p4775
(lp4776
F6.3
aI1
asS'David de Vries'
p4777
(lp4778
F6.0
aI1
asS'Jodie Whittaker'
p4779
(lp4780
F5.8
aI1
asS'Ailsa Marshall'
p4781
(lp4782
F4.4
aI1
asS'Anne Consigny'
p4783
(lp4784
F7.55
aI2
asS'Jeff Hardy'
p4785
(lp4786
F7.5
aI1
asS'James Purefoy'
p4787
(lp4788
F6.1
aI1
asS'Yorgos Lanthimos'
p4789
(lp4790
F6.2
aI1
asS'Ryan Schaufler'
p4791
(lp4792
F2.7
aI1
asS'G.W. Bailey'
p4793
(lp4794
F6.6
aI1
asS'Yun-ju Do'
p4795
(lp4796
F6.8
aI1
asS'John Benfield'
p4797
(lp4798
F6.7
aI1
asS'Max Pfeifer'
p4799
(lp4800
F6.8
aI1
asS'Ajay Devgn'
p4801
(lp4802
F8.2
aI1
asS'Nicollette Sheridan'
p4803
(lp4804
F4.55
aI2
asS'Brian Hallisay'
p4805
(lp4806
F2.1
aI1
asS'Stefan C. Schaefer'
p4807
(lp4808
F6.2
aI1
asS'Emme Rylan'
p4809
(lp4810
F5.7
aI1
asS'Loren Taylor'
p4811
(lp4812
F6.8
aI1
asS'Mamatha Bhukya'
p4813
(lp4814
F7.2
aI1
asS'Christina Ricci'
p4815
(lp4816
F5.9
aI1
asS'Cameron Bright'
p4817
(lp4818
F4.4
aI1
asS'J.J. Jia'
p4819
(lp4820
F5.3
aI1
asS'Emma Cleasby'
p4821
(lp4822
F6.0
aI1
asS'Yeong-suk Jeong'
p4823
(lp4824
F6.550000000000001
aI2
asS'Stanley DeSantis'
p4825
(lp4826
F6.8
aI1
asS'Owen Wilson'
p4827
(lp4828
F6.057142857142857
aI7
asS'Kevin Yon'
p4829
(lp4830
F5.6
aI1
asS'Bob Peterson'
p4831
(lp4832
F8.3
aI1
asS'William Dick'
p4833
(lp4834
F7.6
aI1
asS'Wendy Maldonado'
p4835
(lp4836
F7.7
aI1
asS'Liv Fuyou'
p4837
(lp4838
F6.9
aI1
asS'Patrick Fabian'
p4839
(lp4840
F5.6
aI1
asS'Julia Stiles'
p4841
(lp4842
F8.1
aI1
asS'Catherine Tate'
p4843
(lp4844
F6.8
aI1
asS'You'
p4845
(lp4846
F8.0
aI1
asS'Yukito Nishii'
p4847
(lp4848
F7.8
aI1
asS'Rupert Friend'
p4849
(lp4850
F6.55
aI2
asS'Francesc Albiol'
p4851
(lp4852
F7.5
aI1
asS'Sylvester Stallone'
p4853
(lp4854
F7.2
aI1
asS'So-yeong Choo'
p4855
(lp4856
F6.1
aI1
asS'Uncle Du'
p4857
(lp4858
F7.4
aI1
asS'Angelica Lee'
p4859
(lp4860
F6.1
aI1
asS'Marcus Patrick'
p4861
(lp4862
F4.8
aI1
asS'Francis Romano'
p4863
(lp4864
F5.6
aI1
asS'Keiko Kitagawa'
p4865
(lp4866
F5.5
aI1
asS'Michael Pitt'
p4867
(lp4868
F5.9
aI1
asS'Madeleine Greaves'
p4869
(lp4870
F6.8
aI1
asS'Fengyi Zhang'
p4871
(lp4872
F7.4
aI1
asS'John Cusack'
p4873
(lp4874
F6.300000000000001
aI3
asS'Jacinda Barrett'
p4875
(lp4876
F5.6
aI1
asS'Benicio Del Toro'
p4877
(lp4878
F6.5
aI2
asS'Jean-Michel Geneste'
p4879
(lp4880
F7.4
aI1
asS'Will Barratt'
p4881
(lp4882
F6.5
aI1
asS'Matt Bomer'
p4883
(lp4884
F5.9
aI1
asS'Maria Cordero'
p4885
(lp4886
F6.7
aI1
asS'Jae-Sung Choi'
p4887
(lp4888
F6.3
aI1
asS'Russell Mulcahy'
p4889
(lp4890
F6.6
aI1
asS'Kimberly Peirce'
p4891
(lp4892
F7.5
aI1
asS'Julian Bond'
p4893
(lp4894
F7.7
aI1
asS'Andrew Garfield'
p4895
(lp4896
F7.050000000000001
aI2
asS'Minami Takayama'
p4897
(lp4898
F6.925
aI4
asS'Dee Bradley Baker'
p4899
(lp4900
F5.8
aI1
asS'Greg Kinnear'
p4901
(lp4902
F6.683333333333333
aI6
asS'Yun-Fat Chow'
p4903
(lp4904
F6.1
aI1
asS'Sid Haig'
p4905
(lp4906
F3.2
aI1
asS'Riisa Naka'
p4907
(lp4908
F7.25
aI2
asS'Tom Hanks'
p4909
(lp4910
F7.3
aI3
asS'Kris Shen'
p4911
(lp4912
F6.3
aI1
asS'Maeve Quinlan'
p4913
(lp4914
F6.1
aI1
asS'Galina Tyunina'
p4915
(lp4916
F6.5
aI1
asS'Rick Skene'
p4917
(lp4918
F5.9
aI1
asS'Meredith Bailey'
p4919
(lp4920
F6.6
aI1
asS'Alexz Johnson'
p4921
(lp4922
F5.8
aI1
asS'Frank Langella'
p4923
(lp4924
F6.3
aI1
asS'Joe Bosco'
p4925
(lp4926
F6.6
aI1
asS'Sandrine Bonnaire'
p4927
(lp4928
F6.8
aI1
asS'Ye-ryeon Cha'
p4929
(lp4930
F6.25
aI2
asS'Olivia Galudo'
p4931
(lp4932
F6.2
aI1
asS'Hugh Jackman'
p4933
(lp4934
F7.016666666666667
aI6
asS'Anushka Sharma'
p4935
(lp4936
F7.1
aI1
asS'Gilles Benizio'
p4937
(lp4938
F4.7
aI1
asS'Augustus Prew'
p4939
(lp4940
F6.5
aI1
asS'Ray Romano'
p4941
(lp4942
F6.050000000000001
aI2
asS'James Belushi'
p4943
(lp4944
F5.766666666666667
aI3
asS'PJ DeBoy'
p4945
(lp4946
F6.6
aI1
asS'Brittany Daniel'
p4947
(lp4948
F4.4
aI1
asS'Dominic Cooper'
p4949
(lp4950
F6.2
aI1
asS'Erin Cummings'
p4951
(lp4952
F4.5
aI1
asS'Hiroyuki Sanada'
p4953
(lp4954
F6.2
aI1
asS'John Doman'
p4955
(lp4956
F4.1
aI1
asS'Corinne Benizio'
p4957
(lp4958
F4.7
aI1
asS'Yasiin Bey'
p4959
(lp4960
F6.4
aI1
asS'Mark Fredrichs'
p4961
(lp4962
F6.3
aI1
asS'Robert Popper'
p4963
(lp4964
F7.9
aI1
asS'Akshay Kapoor'
p4965
(lp4966
F4.2
aI1
asS'Brian Dennehy'
p4967
(lp4968
F8.0
aI1
asS'Johnny C. Pruitt'
p4969
(lp4970
F5.9
aI1
asS'Herv\xc3\xa9 Sogne'
p4971
(lp4972
F7.2
aI1
asS'Go Eun Han'
p4973
(lp4974
F6.6
aI1
asS'Jane Lynch'
p4975
(lp4976
F5.5
aI3
asS'Chuck Shamata'
p4977
(lp4978
F4.5
aI1
asS'Christina Moore'
p4979
(lp4980
F3.4
aI1
asS'Simon Merrells'
p4981
(lp4982
F5.8
aI1
asS'Cedric the Entertainer'
p4983
(lp4984
F4.5
aI1
asS'Angela Bassett'
p4985
(lp4986
F6.133333333333333
aI3
asS'Randy Quaid'
p4987
(lp4988
F6.9
aI1
asS'Jason Earles'
p4989
(lp4990
F4.2
aI1
asS'Oscar Steer'
p4991
(lp4992
F6.1
aI1
asS'Michelle Carmichael'
p4993
(lp4994
F6.4
aI1
asS'Vinod Khanna'
p4995
(lp4996
F6.3
aI1
asS'Adrien Brody'
p4997
(lp4998
F6.5
aI5
asS'Chibundu Orukwowu'
p4999
(lp5000
F5.9
aI1
asS'Isaac Hayes'
p5001
(lp5002
F4.0
aI1
asS'William Hope'
p5003
(lp5004
F4.5
aI1
asS'KaDee Strickland'
p5005
(lp5006
F5.45
aI2
asS'L.Q. Jones'
p5007
(lp5008
F6.9
aI1
asS'Sally Field'
p5009
(lp5010
F6.6
aI1
asS'Ulrich Tukur'
p5011
(lp5012
F8.15
aI2
asS'Chris Bland'
p5013
(lp5014
F2.0
aI1
asS'Yaniv Schulman'
p5015
(lp5016
F7.1
aI1
asS'James Franco'
p5017
(lp5018
F6.55
aI6
asS'Abigail Chu'
p5019
(lp5020
F6.0
aI1
asS'Sae-ron Kim'
p5021
(lp5022
F7.9
aI1
asS'Ralph Macchio'
p5023
(lp5024
F6.0
aI1
asS'Kazuko Yoshiyuki'
p5025
(lp5026
F8.1
aI1
asS'Ron Perlman'
p5027
(lp5028
F6.6
aI2
asS'Dennis Farina'
p5029
(lp5030
F6.5
aI1
asS'Dana Hooper'
p5031
(lp5032
F8.2
aI1
asS'Ken Takemoto'
p5033
(lp5034
F6.3
aI1
asS'Andrew Butler'
p5035
(lp5036
F2.9
aI1
asS'Craig Bierko'
p5037
(lp5038
F5.1
aI1
asS'Rambha'
p5039
(lp5040
F6.0
aI1
asS'Kelly Ripa'
p5041
(lp5042
F4.6
aI1
asS'Nick Bacon'
p5043
(lp5044
F6.5
aI1
asS'Dan Beene'
p5045
(lp5046
F4.0
aI1
asS'Dal-su Oh'
p5047
(lp5048
F7.0
aI1
asS'Srdjan Todorovic'
p5049
(lp5050
F5.2
aI1
asS'Don Cheadle'
p5051
(lp5052
F6.833333333333333
aI6
asS'Mark Rolston'
p5053
(lp5054
F6.0
aI1
asS'Cary-Hiroyuki Tagawa'
p5055
(lp5056
F8.1
aI1
asS'Charlotte Frogner'
p5057
(lp5058
F6.4
aI1
asS'Mona Zaki'
p5059
(lp5060
F6.2
aI1
asS'Billy Connolly'
p5061
(lp5062
F5.966666666666666
aI3
asS'David Maysles'
p5063
(lp5064
F7.4
aI1
asS'Milo Ventimiglia'
p5065
(lp5066
F6.0
aI1
asS'Michael Copon'
p5067
(lp5068
F6.6
aI1
asS'Golshifteh Farahani'
p5069
(lp5070
F7.1
aI1
asS'Sarah Habel'
p5071
(lp5072
F6.9
aI1
asS'David Kross'
p5073
(lp5074
F7.6
aI1
asS'Jose Pablo Cantillo'
p5075
(lp5076
F7.0
aI1
asS'Siobhan Fallon Hogan'
p5077
(lp5078
F5.6
aI1
asS'Ashley Judd'
p5079
(lp5080
F6.4
aI2
asS'The English Chamber Choir'
p5081
(lp5082
F7.8
aI1
asS'Jessica Lowndes'
p5083
(lp5084
F4.95
aI2
asS'John Baker'
p5085
(lp5086
F6.1
aI1
asS'Mario Zuniga Benavides'
p5087
(lp5088
F6.4
aI1
asS'Alejandro Awada'
p5089
(lp5090
F5.2
aI1
asS'Halle Berry'
p5091
(lp5092
F6.566666666666666
aI3
asS'John Bryant'
p5093
(lp5094
F6.0
aI1
asS'Shareeka Epps'
p5095
(lp5096
F7.3
aI1
asS'Richard Dreyfuss'
p5097
(lp5098
F5.75
aI2
asS'Jennifer Tisdale'
p5099
(lp5100
F5.3
aI1
asS'Cloris Leachman'
p5101
(lp5102
F6.3
aI1
asS'Lu\xc3\xads Miguel Cintra'
p5103
(lp5104
F7.0
aI1
asS'Spalding Gray'
p5105
(lp5106
F7.2
aI1
asS'David Morse'
p5107
(lp5108
F6.9
aI1
asS'Hadi Subiyanto'
p5109
(lp5110
F5.7
aI1
asS'Ron Glass'
p5111
(lp5112
F6.1
aI1
asS'James Arnold Taylor'
p5113
(lp5114
F5.8
aI1
asS'America Ferrera'
p5115
(lp5116
F8.2
aI1
asS'Tracey Ullman'
p5117
(lp5118
F6.1
aI1
asS'Richard Durden'
p5119
(lp5120
F6.5
aI1
asS'Eileen Atkins'
p5121
(lp5122
F6.25
aI2
asS'Jelena Gavrilovic'
p5123
(lp5124
F5.2
aI1
asS'Sean Pertwee'
p5125
(lp5126
F6.2
aI1
asS'Alexis Georgoulis'
p5127
(lp5128
F5.9
aI1
asS'Emmanuelle Chriqui'
p5129
(lp5130
F5.05
aI2
asS'Laurent Gr\xc3\xa9vill'
p5131
(lp5132
F7.6
aI1
asS'David Barrass'
p5133
(lp5134
F6.7
aI1
asS'Julie Delpy'
p5135
(lp5136
F6.9
aI1
asS'Kevin Heffernan'
p5137
(lp5138
F5.3
aI1
asS'Francis Renaud'
p5139
(lp5140
F6.8
aI1
asS'Ju-yeon Byeon'
p5141
(lp5142
F7.2
aI1
asS'Dominique Frot'
p5143
(lp5144
F6.9
aI1
asS'Jamie Bartlett'
p5145
(lp5146
F4.6
aI1
asS'John Abraham'
p5147
(lp5148
F5.85
aI2
asS'Antje Traue'
p5149
(lp5150
F6.8
aI1
asS'Ry\xc3\xb4ko Hirosue'
p5151
(lp5152
F7.449999999999999
aI2
asS'Charles Robinson'
p5153
(lp5154
F7.1
aI1
asS'Irina Voronina'
p5155
(lp5156
F4.1
aI1
asS'Mark Wahlberg'
p5157
(lp5158
F6.957142857142858
aI7
asS'Bipasha Basu'
p5159
(lp5160
F5.0
aI1
asS'Declan Donnelly'
p5161
(lp5162
F5.8
aI1
asS'Nadja Uhl'
p5163
(lp5164
F7.4
aI1
asS'Taylor Kitsch'
p5165
(lp5166
F5.3
aI1
asS'Matthew Broderick'
p5167
(lp5168
F5.733333333333334
aI3
asS'Oliver Ray'
p5169
(lp5170
F7.2
aI1
asS'Robert Knepper'
p5171
(lp5172
F6.1
aI1
asS'Nate Parker'
p5173
(lp5174
F7.6
aI1
asS'Fengming He'
p5175
(lp5176
F7.8
aI1
asS'Wayne Brady'
p5177
(lp5178
F4.9
aI1
asS'Chris Evans'
p5179
(lp5180
F6.275
aI4
asS'Kamal Haasan'
p5181
(lp5182
F7.2
aI1
asS'Ryan Phillippe'
p5183
(lp5184
F6.525
aI4
asS'David Koechner'
p5185
(lp5186
F4.75
aI4
asS'Peter Coyote'
p5187
(lp5188
F3.9
aI1
asS'Diane Keaton'
p5189
(lp5190
F5.699999999999999
aI2
asS'Jessika Williams'
p5191
(lp5192
F5.8
aI1
asS'Jonathan Alpert'
p5193
(lp5194
F8.3
aI1
asS'Katsunobu Ito'
p5195
(lp5196
F5.5
aI1
asS'Marlon Brando'
p5197
(lp5198
F7.8
aI1
asS'Sammo Kam-Bo Hung'
p5199
(lp5200
F7.6
aI1
asS'Johnny A. Sanchez'
p5201
(lp5202
F6.5
aI1
asS'Matthew W. Taylor'
p5203
(lp5204
F5.2
aI1
asS'Martin Freeman'
p5205
(lp5206
F6.699999999999999
aI4
asS'Moe Arai'
p5207
(lp5208
F4.9
aI1
asS'Dana Fuchs'
p5209
(lp5210
F7.4
aI1
asS'Yoshino Kimura'
p5211
(lp5212
F7.8
aI1
asS'Melvil Poupaud'
p5213
(lp5214
F5.5
aI1
asS'Sarah Elbert'
p5215
(lp5216
F6.5
aI1
asS'Chakrapong Siririn'
p5217
(lp5218
F6.0
aI1
asS'Caterina Murino'
p5219
(lp5220
F4.9
aI1
asS'Steve Callahan'
p5221
(lp5222
F6.7
aI2
asS'Allu Arjun'
p5223
(lp5224
F7.3
aI1
asS'Yuriko Yamaguchi'
p5225
(lp5226
F7.8
aI1
asS'Jack Lamport'
p5227
(lp5228
F5.1
aI1
asS'Junichi Okada'
p5229
(lp5230
F6.5
aI1
asS'Nika Futterman'
p5231
(lp5232
F5.2
aI1
asS'Dylan McDermott'
p5233
(lp5234
F5.4
aI1
asS'Aymen Hamdouchi'
p5235
(lp5236
F6.9
aI1
asS'Keshia Knight Pulliam'
p5237
(lp5238
F4.1
aI1
asS'Kelan Pannell'
p5239
(lp5240
F6.5
aI1
asS'Rinko Kikuchi'
p5241
(lp5242
F6.4
aI1
asS'Winona Ryder'
p5243
(lp5244
F6.4
aI1
asS'Alysson Paradis'
p5245
(lp5246
F6.9
aI1
asS'Arshad Warsi'
p5247
(lp5248
F5.5
aI1
asS'Garrett Hedlund'
p5249
(lp5250
F6.8
aI2
asS'Justin Bacchus'
p5251
(lp5252
F6.8
aI1
asS'C. Thomas Howell'
p5253
(lp5254
F2.1
aI1
asS'Zena Grey'
p5255
(lp5256
F4.8
aI1
asS'Michael Angarano'
p5257
(lp5258
F6.35
aI2
asS'Billy West'
p5259
(lp5260
F6.871428571428571
aI7
asS'John Assaraf'
p5261
(lp5262
F5.7
aI1
asS'Lenny Kaye'
p5263
(lp5264
F7.2
aI1
asS'Michael Shaowanasai'
p5265
(lp5266
F6.9
aI1
asS'Geoffrey Rush'
p5267
(lp5268
F6.699999999999999
aI2
asS'Ronit Roy'
p5269
(lp5270
F8.3
aI1
asS'Thomas Turgoose'
p5271
(lp5272
F7.3
aI1
asS'Dane Cook'
p5273
(lp5274
F6.7
aI3
asS'Don Hahn'
p5275
(lp5276
F7.8
aI1
asS'Ben Shenkman'
p5277
(lp5278
F5.6
aI1
asS'Christopher Carley'
p5279
(lp5280
F8.2
aI1
asS'Charles Berling'
p5281
(lp5282
F7.3
aI1
asS'Richard Speight Jr.'
p5283
(lp5284
F5.1
aI1
asS'Romola Garai'
p5285
(lp5286
F6.6
aI2
asS'Myk Watford'
p5287
(lp5288
F5.3
aI1
asS'Mithun Chakraborty'
p5289
(lp5290
F3.9
aI1
asS'Aleksey Guskov'
p5291
(lp5292
F7.6
aI1
asS'Sebastian Stan'
p5293
(lp5294
F5.966666666666666
aI3
asS'Dakota Blue Richards'
p5295
(lp5296
F6.1
aI1
asS'Bill Bartis'
p5297
(lp5298
F6.9
aI1
asS'Seung-eun Oh'
p5299
(lp5300
F6.7
aI1
asS'Steve Bisley'
p5301
(lp5302
F6.4
aI1
asS'Jennifer Carpenter'
p5303
(lp5304
F6.0
aI1
asS'Jamie Gulpilil'
p5305
(lp5306
F7.0
aI1
asS'Michael Filipowich'
p5307
(lp5308
F4.0
aI1
asS'Naomi Nishida'
p5309
(lp5310
F7.0
aI1
asS'Jack Plotnick'
p5311
(lp5312
F5.8
aI1
asS'Nichola Burley'
p5313
(lp5314
F5.2
aI1
asS'Ventura'
p5315
(lp5316
F7.2
aI1
asS'Christos Stergioglou'
p5317
(lp5318
F7.3
aI1
asS'Gang Jiao'
p5319
(lp5320
F7.4
aI1
asS'Jaimie Alexander'
p5321
(lp5322
F4.6
aI1
asS'Dia Mirza'
p5323
(lp5324
F4.2
aI1
asS'Maribel Verd\xc3\xba'
p5325
(lp5326
F8.2
aI1
asS'Vivi Pineda'
p5327
(lp5328
F3.9
aI1
asS'Peter Hurteau'
p5329
(lp5330
F7.1
aI1
asS'Jane Fonda'
p5331
(lp5332
F5.9
aI1
asS'Mac McDonald'
p5333
(lp5334
F6.6
aI1
asS'Julie Andrews'
p5335
(lp5336
F7.7
aI1
asS'Robert Boulter'
p5337
(lp5338
F5.2
aI1
asS'Merl Reagle'
p5339
(lp5340
F7.4
aI1
asS'Yemi Goodman Ajibade'
p5341
(lp5342
F9.0
aI1
asS'Michael Jai White'
p5343
(lp5344
F6.7
aI1
asS'Dominique McElligott'
p5345
(lp5346
F7.9
aI1
asS'Vance Hartwell'
p5347
(lp5348
F7.1
aI1
asS'Jennifer Copping'
p5349
(lp5350
F6.4
aI1
asS'Tim Sullivan'
p5351
(lp5352
F7.2
aI1
asS'Hie-jeong Kim'
p5353
(lp5354
F5.5
aI1
asS'Heather Graham'
p5355
(lp5356
F5.0
aI2
asS'Mrinal Kulkarni'
p5357
(lp5358
F7.3
aI1
asS'Delroy Lindo'
p5359
(lp5360
F6.1
aI1
asS'Donnie Yen'
p5361
(lp5362
F7.85
aI2
asS'Rebecca De Mornay'
p5363
(lp5364
F7.7
aI1
asS'Rusty Schwimmer'
p5365
(lp5366
F6.5
aI1
asS'Michelle Williams'
p5367
(lp5368
F6.1
aI1
asS'Natalia Klimas'
p5369
(lp5370
F4.7
aI1
asS'Holly Karrol Clark'
p5371
(lp5372
F3.2
aI1
asS'Marina Comas'
p5373
(lp5374
F7.0
aI1
asS'Babou Ceesay'
p5375
(lp5376
F6.6
aI1
asS'Ophelia DeLonte'
p5377
(lp5378
F7.0
aI1
asS'Carly Schroeder'
p5379
(lp5380
F5.199999999999999
aI2
asS'Trisha Krishnan'
p5381
(lp5382
F3.8
aI1
asS'Reema Lagoo'
p5383
(lp5384
F7.1
aI1
asS'Lei Hao'
p5385
(lp5386
F7.0
aI1
asS'Patrick Magee'
p5387
(lp5388
F4.9
aI1
asS'Young-hoon Lee'
p5389
(lp5390
F7.1
aI1
asS'Erica Gluck'
p5391
(lp5392
F6.2
aI1
asS'Jeff Lima'
p5393
(lp5394
F7.3
aI1
asS'Xantha Radley'
p5395
(lp5396
F6.5
aI1
asS'Angus Sutherland'
p5397
(lp5398
F4.6
aI1
asS'Isabelle Huppert'
p5399
(lp5400
F7.0
aI1
asS'David Arquette'
p5401
(lp5402
F6.0
aI1
asS'Hanna Stanbridge'
p5403
(lp5404
F5.4
aI1
asS'Clovis Cornillac'
p5405
(lp5406
F5.65
aI2
asS'Gill Summers'
p5407
(lp5408
F6.0
aI1
asS'John Travolta'
p5409
(lp5410
F6.266666666666666
aI6
asS'Keith Richards'
p5411
(lp5412
F7.2
aI1
asS'Gio Perez'
p5413
(lp5414
F5.5
aI1
asS'Susanne Blakeslee'
p5415
(lp5416
F6.0
aI1
asS'Kasia Smutniak'
p5417
(lp5418
F6.5
aI1
asS'Pablo Fajardo'
p5419
(lp5420
F7.6
aI1
asS'Shalini Vatsa'
p5421
(lp5422
F7.5
aI1
asS'Jo Hartley'
p5423
(lp5424
F5.8
aI1
asS'Ali Hillis'
p5425
(lp5426
F5.1
aI1
asS'Keke Palmer'
p5427
(lp5428
F7.1
aI2
asS'JJ Feild'
p5429
(lp5430
F5.3
aI1
asS'Harisree Asokan'
p5431
(lp5432
F6.4
aI1
asS'Gyu-ri Kim'
p5433
(lp5434
F6.550000000000001
aI2
asS'Kerttisak Udomnak'
p5435
(lp5436
F4.4
aI1
asS'Gerard Hendrick'
p5437
(lp5438
F7.9
aI1
asS'Min-sik Choi'
p5439
(lp5440
F7.8
aI1
asS'Ben Barnes'
p5441
(lp5442
F6.3999999999999995
aI3
asS'Darlan Cunha'
p5443
(lp5444
F7.3
aI1
asS'Eva Birthistle'
p5445
(lp5446
F6.0
aI1
asS'Melissa Leo'
p5447
(lp5448
F7.366666666666667
aI3
asS'Mamoudu Turay Kamara'
p5449
(lp5450
F6.5
aI1
asS'Rattanaballang Tohssawat'
p5451
(lp5452
F6.1
aI1
asS'Carissa Capobianco'
p5453
(lp5454
F5.9
aI1
asS'Clifton Collins Jr.'
p5455
(lp5456
F6.099999999999999
aI3
asS'Juno Temple'
p5457
(lp5458
F6.5
aI1
asS'Dong-won Kang'
p5459
(lp5460
F7.7
aI1
asS'Hyeon-jun Shin'
p5461
(lp5462
F7.0
aI1
asS'Odette Annable'
p5463
(lp5464
F5.3
aI2
asS'Pip Torrens'
p5465
(lp5466
F6.3
aI1
asS'Aliya'
p5467
(lp5468
F7.3
aI1
asS'Joe Jonas'
p5469
(lp5470
F4.066666666666666
aI3
asS'B\xc3\xa1rbara Mori'
p5471
(lp5472
F6.0
aI1
asS'Bojana Novakovic'
p5473
(lp5474
F6.3
aI1
asS'J.J. Straub'
p5475
(lp5476
F3.6
aI1
asS'Sergey Bezrukov'
p5477
(lp5478
F7.0
aI1
asS'Sifei Wang'
p5479
(lp5480
F6.7
aI1
asS'Ayami Kakiuchi'
p5481
(lp5482
F7.9
aI1
asS'Matthew Josten'
p5483
(lp5484
F6.9
aI1
asS'Chris Pontius'
p5485
(lp5486
F6.75
aI2
asS'Won-jong Lee'
p5487
(lp5488
F5.9
aI1
asS'Andero Ermel'
p5489
(lp5490
F7.2
aI1
asS'Rosamund Pike'
p5491
(lp5492
F6.75
aI2
asS'Pablo Rosso'
p5493
(lp5494
F7.5
aI1
asS'T\xc3\xa9a Leoni'
p5495
(lp5496
F6.5
aI1
asS'Tara Davis'
p5497
(lp5498
F6.5
aI1
asS'Ricky Gervais'
p5499
(lp5500
F6.65
aI2
asS'Salli Richardson-Whitfield'
p5501
(lp5502
F7.2
aI1
asS'The Men of Battle Company 2nd of the 503rd Infantry Regiment 173rd Airborne Brigade Combat Team'
p5503
(lp5504
F7.6
aI1
asS'Grey Griffin'
p5505
(lp5506
F6.75
aI2
asS'Ant\xc3\xb3nio Pedro Figueiredo'
p5507
(lp5508
F7.0
aI1
asS'Chen Li'
p5509
(lp5510
F7.6
aI1
asS'Tae-woong Eom'
p5511
(lp5512
F6.7
aI1
asS'Olivia Wilde'
p5513
(lp5514
F6.05
aI2
asS'Juliette van Ardenne'
p5515
(lp5516
F4.8
aI1
asS'Rick Malambri'
p5517
(lp5518
F6.2
aI1
asS'Jue Huang'
p5519
(lp5520
F5.7
aI1
asS'Alberto Arce'
p5521
(lp5522
F8.0
aI1
asS'Jimmy Bennett'
p5523
(lp5524
F5.35
aI2
asS'Gladise Jiminez'
p5525
(lp5526
F6.7
aI1
asS'Jonathan Craven'
p5527
(lp5528
F6.9
aI1
asS'Anusha Dhandekar'
p5529
(lp5530
F5.5
aI1
asS'Jean Clottes'
p5531
(lp5532
F7.4
aI1
asS'Sara Biddle'
p5533
(lp5534
F4.0
aI1
asS'Alexander Gould'
p5535
(lp5536
F6.1
aI1
asS'Matthew Schallipp'
p5537
(lp5538
F4.7
aI1
asS'Kate Bosworth'
p5539
(lp5540
F6.3
aI3
asS'Mallika Sherawat'
p5541
(lp5542
F5.6
aI2
asS'Michael Fairman'
p5543
(lp5544
F6.2
aI1
asS'Sorawut Patheera'
p5545
(lp5546
F7.0
aI1
asS'Anzu Lawson'
p5547
(lp5548
F6.9
aI1
asS'Agnes Bruckner'
p5549
(lp5550
F5.6
aI2
asS'Sullivan Brown'
p5551
(lp5552
F7.5
aI1
asS'Jennifer Coolidge'
p5553
(lp5554
F2.3
aI1
asS'In-kwon Kim'
p5555
(lp5556
F5.8
aI1
asS'Faizon Love'
p5557
(lp5558
F3.75
aI2
asS'Peter Clayton-Luce'
p5559
(lp5560
F6.2
aI1
asS'Cory McAbee'
p5561
(lp5562
F7.2
aI1
asS'Diane Salinger'
p5563
(lp5564
F4.6
aI1
asS'Steve-O'
p5565
(lp5566
F7.1
aI2
asS'Marquise C. Brown'
p5567
(lp5568
F5.7
aI1
asS'Ji-hyun Jun'
p5569
(lp5570
F6.35
aI2
asS'Eric Bossick'
p5571
(lp5572
F5.7
aI1
asS'Lena Endre'
p5573
(lp5574
F7.233333333333333
aI3
asS'Bradley Cooper'
p5575
(lp5576
F6.333333333333333
aI6
asS'Jeremy Piven'
p5577
(lp5578
F5.8
aI1
asS'Kat Coiro'
p5579
(lp5580
F5.3
aI1
asS'William Coleman'
p5581
(lp5582
F8.3
aI1
asS'Zhengwu Cheng'
p5583
(lp5584
F6.9
aI1
asS'Argo Aadli'
p5585
(lp5586
F7.2
aI1
asS'Oded Fehr'
p5587
(lp5588
F6.199999999999999
aI2
asS'Charles Adams'
p5589
(lp5590
F7.5
aI1
asS'Steve Buscemi'
p5591
(lp5592
F6.333333333333333
aI3
asS'Bruce Boxleitner'
p5593
(lp5594
F4.5
aI2
asS'Ana de la Reguera'
p5595
(lp5596
F5.7
aI1
asS'Talulah Riley'
p5597
(lp5598
F5.8
aI1
asS'Thomas Haden Church'
p5599
(lp5600
F5.699999999999999
aI4
asS'Geraldine Hughes'
p5601
(lp5602
F7.2
aI1
asS'Brianna Brown'
p5603
(lp5604
F3.2
aI1
asS'Andrew Howard'
p5605
(lp5606
F6.3
aI1
asS'Laurence Breuls'
p5607
(lp5608
F5.9
aI1
asS'Rebecca Thurmond'
p5609
(lp5610
F6.8
aI1
asS'Mark Pellegrino'
p5611
(lp5612
F5.6
aI1
asS'Paul Giamatti'
p5613
(lp5614
F6.525
aI8
asS'Andreas Lust'
p5615
(lp5616
F7.6
aI1
asS'Christopher Lloyd'
p5617
(lp5618
F4.6
aI1
asS'Wendy Crewson'
p5619
(lp5620
F7.3
aI1
asS'Robert Benz'
p5621
(lp5622
F5.5
aI1
asS'John Benjamin Hickey'
p5623
(lp5624
F7.1
aI1
asS'Michael Welch'
p5625
(lp5626
F5.6
aI1
asS'Stellan Skarsg\xc3\xa5rd'
p5627
(lp5628
F6.6000000000000005
aI3
asS'Oscar Isaac'
p5629
(lp5630
F7.0
aI2
asS'J\xc3\xa9r\xc3\xa9mie Renier'
p5631
(lp5632
F7.3
aI1
asS'Molly Shannon'
p5633
(lp5634
F5.949999999999999
aI2
asS'Perla Haney-Jardine'
p5635
(lp5636
F6.1
aI1
asS'Zheng Xu'
p5637
(lp5638
F5.8
aI1
asS'Steve Carell'
p5639
(lp5640
F6.5375
aI8
asS'Igal Naor'
p5641
(lp5642
F6.9
aI1
asS'Mark Duplass'
p5643
(lp5644
F6.1
aI1
asS'Apasiri Nitibhon'
p5645
(lp5646
F5.8
aI1
asS'Gary Grubbs'
p5647
(lp5648
F6.9
aI1
asS'Phil Vischer'
p5649
(lp5650
F5.7
aI1
asS'Noboru Mitani'
p5651
(lp5652
F4.6
aI1
asS'Gemma Whelan'
p5653
(lp5654
F5.8
aI1
asS'Kyung-gu Sol'
p5655
(lp5656
F5.8
aI1
asS'Robert Mammone'
p5657
(lp5658
F6.1
aI1
asS'Nick Cannon'
p5659
(lp5660
F5.35
aI2
asS'Mariano Chiesa'
p5661
(lp5662
F5.2
aI1
asS'Noriko Eguchi'
p5663
(lp5664
F6.5
aI2
asS'Samuel Anderson'
p5665
(lp5666
F6.9
aI1
asS'Blanca Portillo'
p5667
(lp5668
F7.4
aI2
asS'Damaine Radcliff'
p5669
(lp5670
F6.5
aI1
asS'Steve Howey'
p5671
(lp5672
F3.6
aI1
asS'Manuel Mor\xc3\xb3n'
p5673
(lp5674
F7.7
aI1
asS'Erin Fisher'
p5675
(lp5676
F6.5
aI1
asS'Morjana Alaoui'
p5677
(lp5678
F7.1
aI1
asS'Caroline Dhavernas'
p5679
(lp5680
F6.8
aI2
asS'Brian Grazer'
p5681
(lp5682
F7.0
aI1
asS'Terrence Howard'
p5683
(lp5684
F6.483333333333333
aI6
asS'Chris Cooper'
p5685
(lp5686
F6.8
aI3
asS'Todd Rotondi'
p5687
(lp5688
F6.8
aI1
asS'Hie-bong Byeon'
p5689
(lp5690
F6.55
aI2
asS'Sara Paxton'
p5691
(lp5692
F5.475
aI4
asS'Omari Hardwick'
p5693
(lp5694
F5.9
aI1
asS'Lena Dunham'
p5695
(lp5696
F6.3
aI1
asS'Joan Cusack'
p5697
(lp5698
F6.666666666666667
aI3
asS'Billy Crudup'
p5699
(lp5700
F6.625
aI4
asS'Adam James'
p5701
(lp5702
F5.1
aI1
asS'Qiang Chen'
p5703
(lp5704
F7.4
aI1
asS'Won-hong Choi'
p5705
(lp5706
F5.7
aI1
asS'Anh-Thu'
p5707
(lp5708
F6.0
aI1
asS'Wakana Yamazaki'
p5709
(lp5710
F6.925
aI4
asS'David Alan Basche'
p5711
(lp5712
F7.8
aI1
asS'Zoe Salmon'
p5713
(lp5714
F6.4
aI1
asS'Gustaf Hammarsten'
p5715
(lp5716
F5.9
aI1
asS'Anlian Yao'
p5717
(lp5718
F7.2
aI1
asS'Barbara Chisholm'
p5719
(lp5720
F6.3
aI1
asS'Christopher Meloni'
p5721
(lp5722
F6.0
aI1
asS'Suresh Gopi'
p5723
(lp5724
F4.0
aI1
asS'Michelle Pfeiffer'
p5725
(lp5726
F6.1
aI1
asS'Tucker Albrizzi'
p5727
(lp5728
F8.1
aI1
asS'Meisa Kuroki'
p5729
(lp5730
F6.1
aI1
asS'Suzanne Taliercio'
p5731
(lp5732
F5.6
aI1
asS'Jason Cope'
p5733
(lp5734
F8.0
aI1
asS'Drake Bell'
p5735
(lp5736
F4.5
aI1
asS'Jon Favreau'
p5737
(lp5738
F5.5
aI1
asS'Vernon Dobtcheff'
p5739
(lp5740
F7.1
aI1
asS'Celina Jaitly'
p5741
(lp5742
F4.9
aI1
asS'Y\xc3\xbb Aoi'
p5743
(lp5744
F7.4
aI1
asS'Meesuk Jaengmeesuk'
p5745
(lp5746
F6.4
aI1
asS'Jae Head'
p5747
(lp5748
F7.050000000000001
aI2
asS'Michael Reilly Burke'
p5749
(lp5750
F6.4
aI1
asS'Jaime Pressly'
p5751
(lp5752
F4.8
aI1
asS'Xiao Ke Guan'
p5753
(lp5754
F6.4
aI1
asS'Rooney Mara'
p5755
(lp5756
F7.7
aI1
asS'Liz Covert'
p5757
(lp5758
F8.3
aI1
asS'Kristin Scott Thomas'
p5759
(lp5760
F7.074999999999999
aI4
asS'Panisa Buacharoen'
p5761
(lp5762
F6.0
aI1
asS'Jesper Christensen'
p5763
(lp5764
F7.5
aI1
asS'Michael DeLuise'
p5765
(lp5766
F6.9
aI1
asS'Damian Lau'
p5767
(lp5768
F6.6
aI1
asS'Scott Davies'
p5769
(lp5770
F8.0
aI1
asS'Bob Goody'
p5771
(lp5772
F6.0
aI1
asS'Mi-ya Kim'
p5773
(lp5774
F5.6
aI1
asS'Madeline Carroll'
p5775
(lp5776
F6.550000000000001
aI2
asS'Nicholas Hoult'
p5777
(lp5778
F7.6
aI1
asS'Yukiyoshi Ozawa'
p5779
(lp5780
F6.7
aI1
asS'Barry Primus'
p5781
(lp5782
F7.1
aI1
asS'D\xc3\xa9borah Fran\xc3\xa7ois'
p5783
(lp5784
F7.1
aI1
asS'Wasan Khantaau'
p5785
(lp5786
F4.3
aI1
asS'Seung-hyeon Byeon'
p5787
(lp5788
F6.8
aI1
asS'Anna Grayson'
p5789
(lp5790
F7.7
aI1
asS'Neil Young'
p5791
(lp5792
F7.8
aI1
asS'Vladimir Gostyukhin'
p5793
(lp5794
F7.0
aI1
asS'Yiqing Li'
p5795
(lp5796
F6.6
aI1
asS'Robert Toupin'
p5797
(lp5798
F7.1
aI1
asS'Michael Massee'
p5799
(lp5800
F6.8
aI1
asS'Judy Greer'
p5801
(lp5802
F6.45
aI2
asS'Robert Jauregui'
p5803
(lp5804
F6.8
aI1
asS'Ananda Everingham'
p5805
(lp5806
F5.3
aI1
asS'Kodi Smit-McPhee'
p5807
(lp5808
F7.25
aI2
asS'Alyson Stoner'
p5809
(lp5810
F6.2
aI1
asS'John Ratzenberger'
p5811
(lp5812
F6.9
aI1
asS'Will Clinger'
p5813
(lp5814
F3.1
aI1
asS'Jeezy'
p5815
(lp5816
F5.3
aI1
asS'Joe Chrest'
p5817
(lp5818
F7.0
aI1
asS'LL Cool J'
p5819
(lp5820
F6.4
aI1
asS'Michael Douglas'
p5821
(lp5822
F6.233333333333333
aI3
asS'Achita Sikamana'
p5823
(lp5824
F4.4
aI1
asS'Bob Balaban'
p5825
(lp5826
F5.6
aI1
asS'Molly Ephraim'
p5827
(lp5828
F5.7
aI1
asS'Sang-kyeong Hwang'
p5829
(lp5830
F6.2
aI1
asS'Jimmy Reddington'
p5831
(lp5832
F7.6
aI1
asS'Robert De Niro'
p5833
(lp5834
F6.083333333333333
aI6
asS'Affion Crockett'
p5835
(lp5836
F3.5
aI1
asS'Alex Veadov'
p5837
(lp5838
F6.9
aI1
asS'Kyla Pratt'
p5839
(lp5840
F3.9
aI1
asS'Henry Goodman'
p5841
(lp5842
F7.15
aI2
asS'Richard Feigen'
p5843
(lp5844
F7.7
aI1
asS'Ori Sivan'
p5845
(lp5846
F8.0
aI1
asS'Trent Ford'
p5847
(lp5848
F5.8
aI1
asS'Hye-su Kim'
p5849
(lp5850
F6.2
aI1
asS'Sunil Shetty'
p5851
(lp5852
F4.0
aI1
asS'Ajay'
p5853
(lp5854
F4.3
aI1
asS'Max Records'
p5855
(lp5856
F6.8
aI1
asS'Bree Turner'
p5857
(lp5858
F5.9
aI2
asS'Radha Mitchell'
p5859
(lp5860
F6.459999999999999
aI5
asS'Jiji B\xc3\xbb'
p5861
(lp5862
F6.0
aI1
asS'Giovanna Mezzogiorno'
p5863
(lp5864
F6.4
aI1
asS'Stephen Wastell'
p5865
(lp5866
F3.8
aI1
asS'Zack Ward'
p5867
(lp5868
F4.5
aI1
asS'Colm Feore'
p5869
(lp5870
F4.5
aI1
asS'Rungrawan Tonahongsa'
p5871
(lp5872
F6.0
aI1
asS'Denzel Washington'
p5873
(lp5874
F7.26
aI5
asS'Matyelok Gibbs'
p5875
(lp5876
F6.8
aI1
asS'Eddie Jemison'
p5877
(lp5878
F6.5
aI1
asS'Yunle He'
p5879
(lp5880
F7.5
aI1
asS'Hugh Dancy'
p5881
(lp5882
F5.65
aI2
asS'Scott Glenn'
p5883
(lp5884
F7.8
aI2
asS'Steven Mackintosh'
p5885
(lp5886
F6.6
aI1
asS'Andreas Wisniewski'
p5887
(lp5888
F6.4
aI1
asS'Mathew Horne'
p5889
(lp5890
F5.2
aI1
asS'Rebecca Romijn'
p5891
(lp5892
F5.6
aI1
asS'Andrew Wyatt'
p5893
(lp5894
F6.5
aI1
asS'Elizabeth Berrington'
p5895
(lp5896
F8.0
aI1
asS'Gina Bernard Forbes'
p5897
(lp5898
F6.4
aI1
asS'Rohit Roy'
p5899
(lp5900
F3.5
aI1
asS'James McTeigue'
p5901
(lp5902
F7.6
aI1
asS'Macha Grenon'
p5903
(lp5904
F7.3
aI1
asS'Marian Filali'
p5905
(lp5906
F2.5
aI1
asS'John Goodman'
p5907
(lp5908
F6.1
aI2
asS'Anthony Ruivivar'
p5909
(lp5910
F7.0
aI1
asS'Bryan Greenberg'
p5911
(lp5912
F5.4
aI1
asS'Mary McCormack'
p5913
(lp5914
F6.2
aI1
asS'Brad Rowe'
p5915
(lp5916
F7.9
aI1
asS'Paula Patton'
p5917
(lp5918
F6.6000000000000005
aI3
asS'Jade Anouka'
p5919
(lp5920
F9.0
aI1
asS'David Spade'
p5921
(lp5922
F5.8
aI2
asS'Sandra Bullock'
p5923
(lp5924
F6.62
aI5
asS'Patrick Stewart'
p5925
(lp5926
F6.449999999999999
aI2
asS'Mina E. Mina'
p5927
(lp5928
F7.7
aI1
asS'Hussein Sami'
p5929
(lp5930
F8.2
aI1
asS'Joel David Moore'
p5931
(lp5932
F6.8
aI1
asS'Laura Ramsey'
p5933
(lp5934
F5.866666666666667
aI3
asS'Jane Krakowski'
p5935
(lp5936
F6.2
aI2
asS'Li Gong'
p5937
(lp5938
F6.1000000000000005
aI3
asS'Sean Bean'
p5939
(lp5940
F6.266666666666666
aI3
asS'Mark Donovan'
p5941
(lp5942
F8.0
aI1
asS'Toby Kebbell'
p5943
(lp5944
F6.2
aI1
asS'Krysten Ritter'
p5945
(lp5946
F5.8
aI1
asS'Dina Korzun'
p5947
(lp5948
F6.5
aI1
asS'Larry Miller'
p5949
(lp5950
F6.2
aI1
asS'Bruce Greenwood'
p5951
(lp5952
F7.050000000000001
aI4
asS'Cam Gigandet'
p5953
(lp5954
F6.2
aI5
asS'Eva Bourne'
p5955
(lp5956
F6.1
aI1
asS'Maya Angelou'
p5957
(lp5958
F6.9
aI1
asS'Ailidh Mackay'
p5959
(lp5960
F7.8
aI1
asS'Thomas Jay Ryan'
p5961
(lp5962
F7.6
aI1
asS'Jon Voight'
p5963
(lp5964
F6.8
aI3
asS'Demi Lovato'
p5965
(lp5966
F5.05
aI2
asS'Jeffrey Wright'
p5967
(lp5968
F5.6
aI1
asS'Jos\xc3\xa9 Luis Garc\xc3\xada P\xc3\xa9rez'
p5969
(lp5970
F7.0
aI1
asS'Stephen Root'
p5971
(lp5972
F7.1
aI1
asS'Ryan Merriman'
p5973
(lp5974
F5.8
aI1
asS'Ryan Stiles'
p5975
(lp5976
F6.3
aI1
asS'Edouard Baer'
p5977
(lp5978
F6.0
aI1
asS'Megan Wolfley'
p5979
(lp5980
F5.1
aI1
asS'Andre Braugher'
p5981
(lp5982
F6.5
aI2
asS'Pongpat Wachirabunjong'
p5983
(lp5984
F7.0
aI1
asS'Saffron Burrows'
p5985
(lp5986
F6.25
aI2
asS'Woo-seul-hye Hwang'
p5987
(lp5988
F6.3
aI1
asS'Derya Alabora'
p5989
(lp5990
F7.0
aI1
asS'Leland Orser'
p5991
(lp5992
F7.9
aI1
asS'Naoto Takenaka'
p5993
(lp5994
F7.1
aI1
asS'Dean Lennox Kelly'
p5995
(lp5996
F7.1
aI1
asS'Lindsay Beamish'
p5997
(lp5998
F6.6
aI1
asS'Jennifer Lopez'
p5999
(lp6000
F6.25
aI2
asS'H\xc3\xa9ctor Jim\xc3\xa9nez'
p6001
(lp6002
F5.7
aI1
asS'Vanessa Lemonides'
p6003
(lp6004
F7.7
aI1
asS'Kelly Overton'
p6005
(lp6006
F6.1
aI1
asS'Sigourney Weaver'
p6007
(lp6008
F6.8
aI5
asS'Frank Williams'
p6009
(lp6010
F8.6
aI1
asS'Koby Rouviere'
p6011
(lp6012
F6.1
aI1
asS'Ronit Elkabetz'
p6013
(lp6014
F7.6
aI1
asS'Tim Roth'
p6015
(lp6016
F6.55
aI2
asS'Pia Tjelta'
p6017
(lp6018
F5.2
aI1
asS'Sian Breckin'
p6019
(lp6020
F5.2
aI1
asS'Erik Jensen'
p6021
(lp6022
F7.8
aI1
asS'Jayant Kripalani'
p6023
(lp6024
F4.2
aI1
asS'Ja-Hyeon Chu'
p6025
(lp6026
F6.5
aI2
asS'Janet Khiew'
p6027
(lp6028
F5.5
aI1
asS'Andrew Cecil'
p6029
(lp6030
F7.2
aI1
asS'Cassie Ventura'
p6031
(lp6032
F6.2
aI1
asS'Rupert Grint'
p6033
(lp6034
F6.9
aI1
asS'Takeshi Kaneshiro'
p6035
(lp6036
F7.25
aI2
asS'Alexis Bledel'
p6037
(lp6038
F5.3
aI1
asS'Travis McMahon'
p6039
(lp6040
F6.2
aI1
asS'David Selby'
p6041
(lp6042
F3.2
aI1
asS'Khalifa Natour'
p6043
(lp6044
F7.6
aI1
asS'Jude Law'
p6045
(lp6046
F6.82
aI5
asS'Sarah Carter'
p6047
(lp6048
F4.8
aI1
asS'Tad Hilgenbrink'
p6049
(lp6050
F5.633333333333333
aI3
asS'Judge Reinhold'
p6051
(lp6052
F4.6
aI1
asS'Reena Bashir'
p6053
(lp6054
F5.1
aI1
asS'Karl Pruner'
p6055
(lp6056
F7.0
aI1
asS'Skip Lipman'
p6057
(lp6058
F6.8
aI1
asS'Akshay Kumar'
p6059
(lp6060
F4.175000000000001
aI4
asS'Ry\xc3\xbbhei Matsuda'
p6061
(lp6062
F6.7
aI1
asS'George McRae'
p6063
(lp6064
F6.9
aI1
asS'Cl\xc3\xa9mence Po\xc3\xa9sy'
p6065
(lp6066
F6.0
aI1
asS'Jordan Nagai'
p6067
(lp6068
F8.3
aI1
asS'Steve Austin'
p6069
(lp6070
F6.1
aI1
asS'Eun-jeong Han'
p6071
(lp6072
F6.2
aI1
asS'Cherami Leigh'
p6073
(lp6074
F8.1
aI1
asS'Eun-jeong Ham'
p6075
(lp6076
F5.7
aI1
asS'Sarah Roemer'
p6077
(lp6078
F7.066666666666666
aI3
asS'Melissa Holroyd'
p6079
(lp6080
F6.1
aI1
asS'Wyatt Fenner'
p6081
(lp6082
F6.7
aI1
asS'Byung-hun Lee'
p6083
(lp6084
F7.8
aI1
asS'Vincent Cassel'
p6085
(lp6086
F6.85
aI2
asS'Lakshmi Gopalaswamy'
p6087
(lp6088
F7.3
aI1
asS'Christopher Eccleston'
p6089
(lp6090
F5.466666666666666
aI3
asS'Angelina Jolie'
p6091
(lp6092
F6.842857142857143
aI7
asS'Mike Epps'
p6093
(lp6094
F6.074999999999999
aI4
asS'Bridgit Mendler'
p6095
(lp6096
F7.7
aI1
asS'Tae-ho Goh'
p6097
(lp6098
F6.7
aI1
asS'Matthew Lillard'
p6099
(lp6100
F6.2
aI1
asS'Steve Fisher'
p6101
(lp6102
F6.5
aI1
asS'Ted Haggard'
p6103
(lp6104
F7.5
aI1
asS'Matthias Schoenaerts'
p6105
(lp6106
F7.4
aI1
asS'Aoi Teshima'
p6107
(lp6108
F6.5
aI1
asS'Jeremy Sisto'
p6109
(lp6110
F7.1
aI1
asS'Niall Matter'
p6111
(lp6112
F3.9
aI1
asS'John Hannah'
p6113
(lp6114
F5.2
aI1
asS'Forneus'
p6115
(lp6116
F7.0
aI1
asS'David Beckham'
p6117
(lp6118
F6.4
aI1
asS'Kate Cullinane'
p6119
(lp6120
F7.7
aI1
asS'Itay Tiran'
p6121
(lp6122
F6.9
aI1
asS'Emily Mortimer'
p6123
(lp6124
F6.840000000000001
aI5
asS'Michael-Leon Wooley'
p6125
(lp6126
F7.2
aI1
asS'Lane Hughes'
p6127
(lp6128
F5.5
aI1
asS'Sarah Jessica Parker'
p6129
(lp6130
F5.26
aI5
asS'Roger Bart'
p6131
(lp6132
F5.4
aI1
asS'David Bradley'
p6133
(lp6134
F7.2
aI1
asS'Mary Steenburgen'
p6135
(lp6136
F6.775
aI4
asS'Daniel Abol Pach'
p6137
(lp6138
F8.0
aI1
asS'Robert Duvall'
p6139
(lp6140
F6.666666666666667
aI3
asS'Lex Shrapnel'
p6141
(lp6142
F3.6
aI1
asS'Anjelica Huston'
p6143
(lp6144
F3.9
aI1
asS'T.J. Miller'
p6145
(lp6146
F6.4
aI1
asS'Simon Abkarian'
p6147
(lp6148
F8.0
aI1
asS'Won-tae Choi'
p6149
(lp6150
F6.5
aI1
asS'Mickey Rooney'
p6151
(lp6152
F6.4
aI1
asS'Ravshana Kurkova'
p6153
(lp6154
F7.2
aI1
asS'Jim Sturgess'
p6155
(lp6156
F6.725
aI4
asS'Danny DeVito'
p6157
(lp6158
F5.466666666666666
aI3
asS'Sacha Baron Cohen'
p6159
(lp6160
F6.599999999999999
aI3
asS'Julian Sands'
p6161
(lp6162
F6.7
aI1
asS'Tim Robbins'
p6163
(lp6164
F6.733333333333333
aI3
asS'Walter Raney'
p6165
(lp6166
F7.4
aI1
asS'Jake Epstein'
p6167
(lp6168
F7.4
aI1
asS'Jake Short'
p6169
(lp6170
F4.9
aI1
asS'John Rothman'
p6171
(lp6172
F7.5
aI1
asS'Oh-jung Kwon'
p6173
(lp6174
F5.8
aI1
asS'Woo-hyuk Choi'
p6175
(lp6176
F7.4
aI1
asS'Brian Nelson'
p6177
(lp6178
F7.4
aI1
asS'Moonsu Bang'
p6179
(lp6180
F7.7
aI1
asS'William Sadler'
p6181
(lp6182
F5.5
aI1
asS'Phyllis Alexion'
p6183
(lp6184
F3.1
aI1
asS'Joey Zimmerman'
p6185
(lp6186
F5.8
aI1
asS'Mallikharjunarao'
p6187
(lp6188
F3.9
aI1
asS'Virginia Madsen'
p6189
(lp6190
F6.1
aI4
asS'Samantha Harrington'
p6191
(lp6192
F7.5
aI1
asS'Christina Cole'
p6193
(lp6194
F7.1
aI1
asS'Kai-xuan Tseng'
p6195
(lp6196
F7.6
aI1
asS'Hakeem Kae-Kazim'
p6197
(lp6198
F5.9
aI1
asS'Il-seob Baek'
p6199
(lp6200
F5.1
aI1
asS'Denis Leary'
p6201
(lp6202
F6.9
aI1
asS'Justin Timberlake'
p6203
(lp6204
F4.6
aI1
asS'Denis Arndt'
p6205
(lp6206
F4.5
aI1
asS'Fran\xc3\xa7ois De Brigode'
p6207
(lp6208
F7.5
aI1
asS'Daveigh Chase'
p6209
(lp6210
F3.7
aI1
asS'Chris Messina'
p6211
(lp6212
F6.533333333333332
aI3
asS'Sei Ashina'
p6213
(lp6214
F5.9
aI1
asS'Kelsey Ford'
p6215
(lp6216
F6.8
aI1
asS'Arielle Kebbel'
p6217
(lp6218
F5.0
aI1
asS'Christopher Mintz-Plasse'
p6219
(lp6220
F6.233333333333334
aI3
asS'Joshry Adamme'
p6221
(lp6222
F7.3
aI1
asS'John Leguizamo'
p6223
(lp6224
F6.550000000000001
aI2
asS'Rondel Reynoldson'
p6225
(lp6226
F6.1
aI1
asS'Chen Chang'
p6227
(lp6228
F7.4
aI1
asS'Eddie Alfano'
p6229
(lp6230
F4.5
aI1
asS'Jeremy Suarez'
p6231
(lp6232
F6.2
aI1
asS'Kristin Davis'
p6233
(lp6234
F4.8999999999999995
aI3
asS'Joseph Cross'
p6235
(lp6236
F6.2
aI1
asS'Amber Valletta'
p6237
(lp6238
F5.8
aI3
asS'Kendall Cross'
p6239
(lp6240
F6.3
aI1
asS'Samantha Noble'
p6241
(lp6242
F5.7
aI1
asS'Rodleen Getsic'
p6243
(lp6244
F3.6
aI1
asS'Joe Dinicol'
p6245
(lp6246
F6.6
aI1
asS'Marie Gillain'
p6247
(lp6248
F6.7
aI1
asS'Jeremy Renner'
p6249
(lp6250
F7.6
aI1
asS'Damon Wayans Jr.'
p6251
(lp6252
F3.5
aI1
asS'Mark ONeal'
p6253
(lp6254
F6.1
aI1
asS'Anna Friel'
p6255
(lp6256
F5.75
aI2
asS'Byeong-seon Kim'
p6257
(lp6258
F6.4
aI1
asS'Emily Barclay'
p6259
(lp6260
F6.45
aI2
asS'Vincent Piazza'
p6261
(lp6262
F6.3
aI1
asS'Hugh McLean'
p6263
(lp6264
F1.4
aI1
asS'Haya Hamdan'
p6265
(lp6266
F8.0
aI1
asS'Toni Bertorelli'
p6267
(lp6268
F5.9
aI1
asS'Matthew Wolf'
p6269
(lp6270
F1.7
aI1
asS'Shin-il Kang'
p6271
(lp6272
F6.3
aI1
asS'Lauren Holly'
p6273
(lp6274
F4.1
aI1
asS'Ana Claudia Talanc\xc3\xb3n'
p6275
(lp6276
F6.3
aI1
asS'Paul Schneider'
p6277
(lp6278
F6.666666666666667
aI3
asS'Ashley C. Williams'
p6279
(lp6280
F4.5
aI1
asS'Eun-yong Yang'
p6281
(lp6282
F7.7
aI1
asS'Kerry Washington'
p6283
(lp6284
F6.433333333333334
aI3
asS'Christen Mooney'
p6285
(lp6286
F7.7
aI1
asS'John C. Reilly'
p6287
(lp6288
F6.55
aI4
asS'Timothy Dalton'
p6289
(lp6290
F6.0
aI1
asS'Ankush Choudhary'
p6291
(lp6292
F7.1
aI1
asS'Lombardo Boyar'
p6293
(lp6294
F6.5
aI1
asS'Dandan Song'
p6295
(lp6296
F7.4
aI1
asS'JR Reed'
p6297
(lp6298
F6.8
aI1
asS'Domonkos N\xc3\xa9meth'
p6299
(lp6300
F7.8
aI1
asS'Panther Bior'
p6301
(lp6302
F8.0
aI1
asS'Adam Rothenberg'
p6303
(lp6304
F5.8
aI1
asS'S\xc3\xb4suke Takaoka'
p6305
(lp6306
F7.2
aI1
asS'Caolan Guan'
p6307
(lp6308
F6.4
aI1
asS'Tomoharu Hasegawa'
p6309
(lp6310
F7.1
aI1
asS'Tim Curry'
p6311
(lp6312
F5.4
aI2
asS'Jake Gyllenhaal'
p6313
(lp6314
F7.033333333333332
aI3
asS'Luke Benward'
p6315
(lp6316
F5.4
aI1
asS'Aldevina Da Silva'
p6317
(lp6318
F6.8
aI1
asS'Ashlee Thompson'
p6319
(lp6320
F7.2
aI1
asS'Leonardo DiCaprio'
p6321
(lp6322
F7.783333333333334
aI6
asS'Lynn Collins'
p6323
(lp6324
F6.0
aI1
asS'Baki Davrak'
p6325
(lp6326
F7.9
aI1
asS'Lucas Grabeel'
p6327
(lp6328
F5.025
aI4
asS'Sa\xc3\xafd Taghmaoui'
p6329
(lp6330
F7.0
aI1
asS'Do-yeon Jeon'
p6331
(lp6332
F7.5
aI1
asS'Adam Brooks'
p6333
(lp6334
F7.2
aI1
asS'Tal Bachman'
p6335
(lp6336
F7.7
aI1
asS'Ali Larter'
p6337
(lp6338
F6.1
aI2
asS'Aml Ameen'
p6339
(lp6340
F6.8
aI1
asS'Te Aho Eketone-Whitu'
p6341
(lp6342
F7.5
aI1
asS'Peter OBrien'
p6343
(lp6344
F4.8
aI1
asS'Emma Caulfield'
p6345
(lp6346
F6.6
aI1
asS'Clifton Powell'
p6347
(lp6348
F3.9
aI1
asS'Shigeru Yokota'
p6349
(lp6350
F7.9
aI1
asS'Heiki Ahonen'
p6351
(lp6352
F8.5
aI1
asS'William H. Macy'
p6353
(lp6354
F5.9
aI1
asS'Cunzhuang Ge'
p6355
(lp6356
F5.8
aI1
asS'Tom Hollander'
p6357
(lp6358
F6.65
aI2
asS'Reverend Gadget'
p6359
(lp6360
F7.7
aI1
asS'Tom Everett Scott'
p6361
(lp6362
F5.6
aI1
asS'Cris Lankenau'
p6363
(lp6364
F6.5
aI1
asS'Connor Paolo'
p6365
(lp6366
F6.0
aI1
asS'Jesse Eisenberg'
p6367
(lp6368
F7.225
aI4
asS'Rahul Dev'
p6369
(lp6370
F5.0
aI1
asS'Christian Cooke'
p6371
(lp6372
F6.9
aI1
asS'Lindsay Lohan'
p6373
(lp6374
F5.1499999999999995
aI4
asS'Ethan Embry'
p6375
(lp6376
F6.2
aI1
asS'John Cleese'
p6377
(lp6378
F5.85
aI2
asS'Geoffrey Wigdor'
p6379
(lp6380
F6.9
aI1
asS'Victor Verhaeghe'
p6381
(lp6382
F5.8
aI1
asS'Nayanthara'
p6383
(lp6384
F5.5
aI2
asS'Michael ONeill'
p6385
(lp6386
F6.3
aI1
asS'Sharni Vinson'
p6387
(lp6388
F6.2
aI1
asS'Yinan Wang'
p6389
(lp6390
F6.8
aI1
asS'Dan DeLuca'
p6391
(lp6392
F3.9
aI1
asS'Richard Griffiths'
p6393
(lp6394
F7.300000000000001
aI2
asS'Franco-Giacomo Carbone'
p6395
(lp6396
F7.0
aI1
asS'Isabelle Carr\xc3\xa9'
p6397
(lp6398
F6.7
aI1
asS'Jean Francko'
p6399
(lp6400
F7.0
aI1
asS'Kadeem Hardison'
p6401
(lp6402
F5.8
aI1
asS'Rachel Weisz'
p6403
(lp6404
F7.1
aI4
asS'Nick Searcy'
p6405
(lp6406
F7.4
aI1
asS'Vernon Wells'
p6407
(lp6408
F3.8
aI1
asS'Asami'
p6409
(lp6410
F5.9
aI1
asS'Marc Coronado'
p6411
(lp6412
F2.0
aI1
asS'Brenda Blethyn'
p6413
(lp6414
F7.8
aI1
asS'Briana Evigan'
p6415
(lp6416
F4.95
aI2
asS'Wood Harris'
p6417
(lp6418
F5.9
aI1
asS'Bryce Lindemann'
p6419
(lp6420
F7.3
aI1
asS'Brian F. Durkin'
p6421
(lp6422
F6.2
aI1
asS'Leon Rippy'
p6423
(lp6424
F6.9
aI1
asS'Paresh Rawal'
p6425
(lp6426
F6.733333333333333
aI3
asS'Andy Samberg'
p6427
(lp6428
F6.066666666666666
aI3
asS'Nadja Brand'
p6429
(lp6430
F4.9
aI1
asS'Debra Messing'
p6431
(lp6432
F6.2
aI1
asS'Paul Walker'
p6433
(lp6434
F7.3
aI1
asS'Hye-gyeong Kim'
p6435
(lp6436
F5.6
aI1
asS'Matt Czuchry'
p6437
(lp6438
F5.3
aI1
asS'George W. Bush'
p6439
(lp6440
F8.1
aI1
asS'Marisa Tomei'
p6441
(lp6442
F7.3
aI1
asS'Giovanni Bejarano'
p6443
(lp6444
F2.3
aI1
asS'Marnette Patterson'
p6445
(lp6446
F4.6
aI1
asS'Summer Glau'
p6447
(lp6448
F3.7
aI1
asS'Tress MacNeille'
p6449
(lp6450
F7.12
aI5
asS'Marina Hands'
p6451
(lp6452
F6.8
aI1
asS'St\xc3\xa9phane Aubier'
p6453
(lp6454
F7.5
aI1
asS'Aleksa Palladino'
p6455
(lp6456
F5.5
aI1
asS'Steve Pemberton'
p6457
(lp6458
F6.3
aI1
asS'Michael Reich'
p6459
(lp6460
F7.1
aI1
asS'Masaya Onosaka'
p6461
(lp6462
F7.5
aI1
asS'Michael Zegen'
p6463
(lp6464
F6.8
aI1
asS'Kelsey Johnson'
p6465
(lp6466
F7.4
aI1
asS'John Corbett'
p6467
(lp6468
F5.58
aI5
asS'Nick Jonas'
p6469
(lp6470
F3.5999999999999996
aI2
asS'Sarah Heinke'
p6471
(lp6472
F5.3
aI1
asS'Jessica Hecht'
p6473
(lp6474
F6.3
aI1
asS'Cheryl Hines'
p6475
(lp6476
F5.7
aI3
asS'Peter Borg'
p6477
(lp6478
F2.4
aI1
asS'In-mun Kim'
p6479
(lp6480
F5.5
aI1
asS'Jennifer Lawrence'
p6481
(lp6482
F7.2
aI1
asS'Colin Beavan'
p6483
(lp6484
F6.7
aI1
asS'Sh\xc3\xbbji Kashiwabara'
p6485
(lp6486
F6.1
aI1
asS'Mia Farrow'
p6487
(lp6488
F6.2
aI2
asS'Fred Vogel'
p6489
(lp6490
F3.9
aI1
asS'Christine Bottomley'
p6491
(lp6492
F7.0
aI1
asS'Lee Pace'
p6493
(lp6494
F7.9
aI1
asS'Norman Reedus'
p6495
(lp6496
F6.3
aI1
asS'Marco Antonio Aguirre'
p6497
(lp6498
F7.6
aI1
asS'Anthony Piccininni'
p6499
(lp6500
F6.0
aI1
asS'Gino Cabanas'
p6501
(lp6502
F3.8
aI1
asS'Rob Brown'
p6503
(lp6504
F6.833333333333333
aI3
asS'Danny Glover'
p6505
(lp6506
F6.124999999999999
aI4
asS'Timothy V. Murphy'
p6507
(lp6508
F6.8
aI1
asS'Gyu-Woon Jung'
p6509
(lp6510
F7.3
aI1
asS'Elaine Jin'
p6511
(lp6512
F6.8
aI1
asS'Benjamin Helstad'
p6513
(lp6514
F6.8
aI1
asS'Utkarsh Ambudkar'
p6515
(lp6516
F6.7
aI1
asS'Robert Patrick'
p6517
(lp6518
F4.7
aI1
asS'Karla Cecilia Alvarado'
p6519
(lp6520
F7.6
aI1
asS'So-jin Jeong'
p6521
(lp6522
F4.3
aI1
asS'Andrew Cherry'
p6523
(lp6524
F6.4
aI1
asS'Tony Chiu Wai Leung'
p6525
(lp6526
F7.4
aI1
asS'Tamara Feldman'
p6527
(lp6528
F6.5
aI1
asS'Sean Faris'
p6529
(lp6530
F6.6
aI1
asS'Ingrid Bols\xc3\xb8 Berdal'
p6531
(lp6532
F6.4
aI1
asS'Elise Ivy'
p6533
(lp6534
F6.6
aI1
asS'Sai Kumar'
p6535
(lp6536
F3.8
aI1
asS'Premjit'
p6537
(lp6538
F5.1
aI1
asS'Liv Tyler'
p6539
(lp6540
F6.825
aI4
asS'CCH Pounder'
p6541
(lp6542
F7.0
aI1
asS'Michael Mantell'
p6543
(lp6544
F6.9
aI1
asS'Kay Panabaker'
p6545
(lp6546
F5.7
aI1
asS'Shaun Toub'
p6547
(lp6548
F7.199999999999999
aI2
asS'Demi Moore'
p6549
(lp6550
F6.7
aI2
asS'Hector Avalos'
p6551
(lp6552
F3.7
aI1
asS'Craig Ferguson'
p6553
(lp6554
F8.2
aI1
asS'Shah Rukh Khan'
p6555
(lp6556
F6.833333333333333
aI6
asS'Wei Fan'
p6557
(lp6558
F6.266666666666667
aI3
asS'Kappei Yamaguchi'
p6559
(lp6560
F6.9
aI2
asS'Sean Rees-Wemyss'
p6561
(lp6562
F6.4
aI1
asS'Dwight Yoakam'
p6563
(lp6564
F5.95
aI2
asS'Trevor Duke-Moretz'
p6565
(lp6566
F5.4
aI1
asS'Stephen Campbell Moore'
p6567
(lp6568
F6.733333333333334
aI3
asS'Gemma Jones'
p6569
(lp6570
F6.3
aI1
asS'Paul Chun'
p6571
(lp6572
F5.5
aI1
asS'Zi-feng Zhang'
p6573
(lp6574
F7.6
aI1
asS'Hele K\xc3\xb5re'
p6575
(lp6576
F7.2
aI1
asS'Ski Carr'
p6577
(lp6578
F3.8
aI1
asS'Gordana Vukres'
p6579
(lp6580
F6.9
aI1
asS'R\xc3\xa9my Girard'
p6581
(lp6582
F8.2
aI1
asS'Seth Rogen'
p6583
(lp6584
F6.566666666666666
aI6
asS'Rachel Black'
p6585
(lp6586
F6.3
aI1
asS'Donald Sutherland'
p6587
(lp6588
F6.0
aI3
asS'Tom Lodewyck'
p6589
(lp6590
F2.7
aI1
asS'Helena Bonham Carter'
p6591
(lp6592
F7.3
aI2
asS'Adriana Mocca'
p6593
(lp6594
F6.5
aI1
asS'Adisorn Insee'
p6595
(lp6596
F6.0
aI1
asS'William Hurt'
p6597
(lp6598
F7.466666666666666
aI3
asS'Zhonghua Chen'
p6599
(lp6600
F7.7
aI1
asS'Carina Lau'
p6601
(lp6602
F6.4
aI1
asS'Chang-Seok Ko'
p6603
(lp6604
F7.4
aI1
asS'Evangelia Randou'
p6605
(lp6606
F6.2
aI1
asS'Abhinayasri'
p6607
(lp6608
F3.9
aI1
asS'Naomie Harris'
p6609
(lp6610
F6.0
aI1
asS'Irandhir Santos'
p6611
(lp6612
F8.1
aI1
asS'Pieter Van Nieuwenhuyze'
p6613
(lp6614
F6.8
aI1
asS'Rob Devaney'
p6615
(lp6616
F6.2
aI1
asS'Alain Chabat'
p6617
(lp6618
F7.3
aI1
asS'Su-hyeon Kim'
p6619
(lp6620
F5.9
aI1
asS'Marie Westbrook'
p6621
(lp6622
F1.6
aI1
asS'Tom Burke'
p6623
(lp6624
F5.2
aI1
asS'Shelby Lyn Vogel'
p6625
(lp6626
F3.9
aI1
asS'Michael Keaton'
p6627
(lp6628
F5.3
aI1
asS'Jena Malone'
p6629
(lp6630
F7.099999999999999
aI3
asS'Dick Van Dyke'
p6631
(lp6632
F6.4
aI1
asS'Rajan P. Dev'
p6633
(lp6634
F4.0
aI1
asS'Kar Yan Lam'
p6635
(lp6636
F4.3
aI1
asS'Eita'
p6637
(lp6638
F6.4
aI1
asS'Joy Bryant'
p6639
(lp6640
F5.3
aI1
asS'Tommy Lee Jones'
p6641
(lp6642
F7.074999999999999
aI4
asS'Ioan Gruffudd'
p6643
(lp6644
F6.15
aI2
asS'Brendan Fraser'
p6645
(lp6646
F5.6
aI4
asS'Kathryn Morris'
p6647
(lp6648
F6.8
aI1
asS'Masanobu And\xc3\xb4'
p6649
(lp6650
F6.3
aI1
asS'Susan Sarandon'
p6651
(lp6652
F6.275
aI4
asS'Shawnee Smith'
p6653
(lp6654
F6.2
aI1
asS'Cory Hart'
p6655
(lp6656
F5.4
aI1
asS'Ben Foster'
p6657
(lp6658
F7.0
aI2
asS'Rachel Nichols'
p6659
(lp6660
F5.9
aI1
asS'Winter Ave Zoli'
p6661
(lp6662
F5.6
aI1
asS'Rachel Howe'
p6663
(lp6664
F6.3
aI1
asS'Dan Castellaneta'
p6665
(lp6666
F6.066666666666667
aI3
asS'Braulio Castillo'
p6667
(lp6668
F6.1
aI1
asS'Anuj Chaudhary'
p6669
(lp6670
F6.1
aI1
asS'Lawrence Hilton-Jacobs'
p6671
(lp6672
F5.3
aI1
asS'Jin-yeong Jeong'
p6673
(lp6674
F7.2
aI1
asS'Cato Sandford'
p6675
(lp6676
F6.3
aI1
asS'Jackson Wurth'
p6677
(lp6678
F7.9
aI1
asS'Brandon Routh'
p6679
(lp6680
F6.1
aI1
asS'Anthony Head'
p6681
(lp6682
F6.7
aI1
asS'Lucas McHugh Carroll'
p6683
(lp6684
F6.5
aI1
asS'Ha-yoon Song'
p6685
(lp6686
F6.1
aI1
asS'Marianne Faithfull'
p6687
(lp6688
F7.2
aI1
asS'Ashley Eckstein'
p6689
(lp6690
F5.8
aI1
asS'Stephen Lang'
p6691
(lp6692
F7.4
aI2
asS'Saleh Bakri'
p6693
(lp6694
F7.6
aI1
asS'Rick Moranis'
p6695
(lp6696
F6.2
aI1
asS'Jordan Fry'
p6697
(lp6698
F6.9
aI1
asS'Ashraf Barhom'
p6699
(lp6700
F7.2
aI1
asS'Kelly Hu'
p6701
(lp6702
F6.449999999999999
aI2
asS'Crugie'
p6703
(lp6704
F7.2
aI1
asS'Kenneth Branagh'
p6705
(lp6706
F7.1
aI1
asS'Antonio Tarver'
p6707
(lp6708
F7.2
aI1
asS'Stephen Hogan'
p6709
(lp6710
F4.4
aI1
asS'Bruno Campos'
p6711
(lp6712
F7.2
aI1
asS'Kendra C. Johnson'
p6713
(lp6714
F3.0
aI1
asS'Martin Garbus'
p6715
(lp6716
F7.5
aI1
asS'Dequn Han'
p6717
(lp6718
F6.5
aI1
asS'Richard OBarry'
p6719
(lp6720
F8.5
aI1
asS'Jeff Dylan Graham'
p6721
(lp6722
F4.4
aI1
asS'Paulo Costanzo'
p6723
(lp6724
F6.1
aI1
asS'Aaron Stanford'
p6725
(lp6726
F5.6
aI1
asS'Parker Posey'
p6727
(lp6728
F6.533333333333334
aI3
asS'Ashley Parker Angel'
p6729
(lp6730
F4.6
aI1
asS'50 Cent'
p6731
(lp6732
F6.0
aI1
asS'Candace Hammer'
p6733
(lp6734
F6.7
aI1
asS'Michael McKean'
p6735
(lp6736
F7.2
aI1
asS'Wakana Sakai'
p6737
(lp6738
F7.4
aI1
asS'Micha\xc3\xabl Cohen'
p6739
(lp6740
F6.5
aI1
asS'Amy Smart'
p6741
(lp6742
F6.833333333333333
aI3
asS'Chong-ok Bae'
p6743
(lp6744
F6.6
aI1
asS'Young-ju Seo'
p6745
(lp6746
F6.4
aI1
asS'Aly Michalka'
p6747
(lp6748
F6.4
aI1
asS'Tessie Santiago'
p6749
(lp6750
F2.8
aI1
asS'Natthakarn Aphaiwonk'
p6751
(lp6752
F6.6
aI1
asS'Hie-bong Jo'
p6753
(lp6754
F5.9
aI1
asS'Nathalie Boltt'
p6755
(lp6756
F8.0
aI1
asS'Daniel Mays'
p6757
(lp6758
F7.3
aI1
asS'Terry Crews'
p6759
(lp6760
F5.25
aI2
asS'Harrison Fahn'
p6761
(lp6762
F7.0
aI1
asS'Ryan Cartwright'
p6763
(lp6764
F4.8
aI1
asS'Jiah Khan'
p6765
(lp6766
F7.3
aI1
asS'Michael Corenblith'
p6767
(lp6768
F7.0
aI1
asS'Moran Atias'
p6769
(lp6770
F6.25
aI2
asS'Gerard Kearns'
p6771
(lp6772
F7.2
aI1
asS'Stewart Brand'
p6773
(lp6774
F7.0
aI1
asS'Michael Lonsdale'
p6775
(lp6776
F7.2
aI1
asS'Essie Davis'
p6777
(lp6778
F7.0
aI1
asS'Ni Yan'
p6779
(lp6780
F7.3
aI1
asS'Joe Carnahan'
p6781
(lp6782
F7.0
aI1
asS'Mik Scriba'
p6783
(lp6784
F5.4
aI1
asS'Yuling Zhang'
p6785
(lp6786
F7.5
aI1
asS'German Alexander'
p6787
(lp6788
F7.5
aI1
asS'Yoav Donat'
p6789
(lp6790
F6.9
aI1
asS'Callum Blue'
p6791
(lp6792
F5.6
aI1
asS'Dan Aykroyd'
p6793
(lp6794
F4.6
aI1
asS'Chris ODowd'
p6795
(lp6796
F7.1
aI1
asS'Antony Langdon'
p6797
(lp6798
F6.2
aI1
asS'Jean-Louis Blondeau'
p6799
(lp6800
F7.9
aI1
asS'Jonas Ball'
p6801
(lp6802
F5.6
aI1
asS'Michael Rose'
p6803
(lp6804
F3.4
aI1
asS'Emily Blunt'
p6805
(lp6806
F6.814285714285712
aI7
asS'Josh Whitelaw'
p6807
(lp6808
F5.4
aI1
asS'Rukhsar'
p6809
(lp6810
F7.4
aI1
asS'Mariya Poroshina'
p6811
(lp6812
F6.5
aI1
asS'Woon-gye Yeo'
p6813
(lp6814
F5.8
aI1
asS'Emilio Estevez'
p6815
(lp6816
F7.4
aI1
asS'Harrison Ford'
p6817
(lp6818
F6.325
aI4
asS'Won-sang Park'
p6819
(lp6820
F4.4
aI1
asS'Kirt Kishita'
p6821
(lp6822
F6.9
aI1
asS'Craig Gellis'
p6823
(lp6824
F5.9
aI1
asS'Vanessa Ferlito'
p6825
(lp6826
F6.5
aI3
asS'Jodie Bradbeer'
p6827
(lp6828
F4.6
aI1
asS'Wass Stevens'
p6829
(lp6830
F7.8
aI1
asS'Edgar Morais'
p6831
(lp6832
F7.0
aI1
asS'Shaley Scott'
p6833
(lp6834
F1.7
aI1
asS'Katherine Lanpher'
p6835
(lp6836
F6.6
aI1
asS'Vince Edwards'
p6837
(lp6838
F7.9
aI1
asS'Juan Doc Restrepo'
p6839
(lp6840
F7.6
aI1
asS'Jenna Harrison'
p6841
(lp6842
F3.2
aI1
asS'Claudia Celed\xc3\xb3n'
p6843
(lp6844
F7.4
aI1
asS'Maria Canals-Barrera'
p6845
(lp6846
F5.0
aI1
asS'Siu-Wong Fan'
p6847
(lp6848
F8.1
aI1
asS'Shaukat Baig'
p6849
(lp6850
F5.2
aI1
asS'Tobin Bell'
p6851
(lp6852
F5.9
aI5
asS'Shoshana Bush'
p6853
(lp6854
F3.5
aI1
asS'Jim Caviezel'
p6855
(lp6856
F6.3
aI1
asS'Todd Berger'
p6857
(lp6858
F5.5
aI1
asS'Pierce Brosnan'
p6859
(lp6860
F6.5
aI3
asS'Yi Zhang'
p6861
(lp6862
F7.3
aI1
asS'Darrin Dewitt Henson'
p6863
(lp6864
F6.25
aI2
asS'Luke Ford'
p6865
(lp6866
F6.2
aI1
asS'Hiam Abbass'
p6867
(lp6868
F6.949999999999999
aI2
asS'Nicola Giacobbe'
p6869
(lp6870
F2.7
aI1
asS'Lacey Chabert'
p6871
(lp6872
F4.1
aI1
asS'Joaquim Carvalho'
p6873
(lp6874
F7.0
aI1
asS'Stella Maeve'
p6875
(lp6876
F6.6
aI1
asS'Mark Gatiss'
p6877
(lp6878
F6.8
aI1
asS'Kumiko As\xc3\xb4'
p6879
(lp6880
F6.6
aI1
asS'Vijaya Mehta'
p6881
(lp6882
F7.3
aI1
asS'Jeremy Irons'
p6883
(lp6884
F6.3
aI3
asS'David Duchovny'
p6885
(lp6886
F6.6000000000000005
aI3
asS'Thanapat Saisaymar'
p6887
(lp6888
F6.6
aI1
asS'Lynn Hung'
p6889
(lp6890
F6.25
aI2
asS'Jim Broadbent'
p6891
(lp6892
F6.8
aI2
asS'Gina Torres'
p6893
(lp6894
F5.5
aI1
asS'Hiroshi Abe'
p6895
(lp6896
F7.266666666666667
aI3
asS'Bill Camp'
p6897
(lp6898
F6.2
aI1
asS'Hyeon-yeong'
p6899
(lp6900
F6.9
aI1
asS'Slobodan Bestic'
p6901
(lp6902
F5.2
aI1
asS'Jun-ho Jeong'
p6903
(lp6904
F6.5
aI3
asS'Beverly Todd'
p6905
(lp6906
F7.4
aI1
asS'Ruth Sheen'
p6907
(lp6908
F7.3
aI1
asS'Seon-Yeong Baek'
p6909
(lp6910
F6.2
aI1
asS'Al Pacino'
p6911
(lp6912
F6.0
aI1
asS'G\xc3\xbcrsoy Gemec'
p6913
(lp6914
F7.9
aI1
asS'Logan Marshall-Green'
p6915
(lp6916
F6.3
aI1
asS'Bill Clinton'
p6917
(lp6918
F7.0
aI1
asS'Norah Jones'
p6919
(lp6920
F6.7
aI1
asS'John Newton'
p6921
(lp6922
F5.4
aI1
asS'Josh Brolin'
p6923
(lp6924
F6.839999999999999
aI5
asS'Farida Benkhetache'
p6925
(lp6926
F7.4
aI1
asS'Daniel Benzali'
p6927
(lp6928
F5.2
aI1
asS'Carey Mulligan'
p6929
(lp6930
F6.933333333333334
aI3
asS'Penny Balfour'
p6931
(lp6932
F6.0
aI1
asS'Jamel Debbouze'
p6933
(lp6934
F6.7
aI1
asS'Jon Lewis'
p6935
(lp6936
F7.5
aI1
asS'Jerry OConnell'
p6937
(lp6938
F4.2
aI2
asS'Mushtaq Khan'
p6939
(lp6940
F3.5
aI1
asS'Jeffrey Nordling'
p6941
(lp6942
F6.3
aI1
asS'Brad Pitt'
p6943
(lp6944
F7.471428571428571
aI7
asS'Paul Soter'
p6945
(lp6946
F6.3
aI1
asS'Pruitt Taylor Vince'
p6947
(lp6948
F4.7
aI1
asS'Martin Sheen'
p6949
(lp6950
F7.550000000000001
aI2
asS'Miranda Richardson'
p6951
(lp6952
F6.449999999999999
aI2
asS'Scott Patterson'
p6953
(lp6954
F5.85
aI2
asS'Richard Fleischer'
p6955
(lp6956
F6.9
aI1
asS'Elarica Johnson'
p6957
(lp6958
F7.5
aI1
asS'Hannah Lynch'
p6959
(lp6960
F6.2
aI1
asS'Adam Beach'
p6961
(lp6962
F7.1
aI1
asS'Nicolas Buysse'
p6963
(lp6964
F7.5
aI1
asS'Woong-in Jeong'
p6965
(lp6966
F6.6
aI1
asS'Atom Egoyan'
p6967
(lp6968
F7.3
aI1
asS'Luis Tosar'
p6969
(lp6970
F7.7
aI1
asS'Morris Birdyellowhead'
p6971
(lp6972
F7.8
aI1
asS'Xueqi Wang'
p6973
(lp6974
F5.7
aI1
asS'David Morrissey'
p6975
(lp6976
F5.7
aI1
asS'Joey King'
p6977
(lp6978
F6.7
aI1
asS'Tina Fey'
p6979
(lp6980
F6.533333333333334
aI3
asS'Atsushi It\xc3\xb4'
p6981
(lp6982
F5.4
aI1
asS'Roly Serrano'
p6983
(lp6984
F5.2
aI1
asS'Delphine Chan\xc3\xa9ac'
p6985
(lp6986
F6.0
aI1
asS'Peter Weller'
p6987
(lp6988
F4.6
aI1
asS'Ki-bum Kim'
p6989
(lp6990
F5.8
aI1
asS'Will Wallace'
p6991
(lp6992
F6.3
aI1
asS'Tony Bentley'
p6993
(lp6994
F7.0
aI1
asS'Melkar Muallem'
p6995
(lp6996
F7.1
aI1
asS'Cornelio Wall'
p6997
(lp6998
F7.3
aI1
asS'Jason Watkins'
p6999
(lp7000
F6.5
aI1
asS'Ken Bevel'
p7001
(lp7002
F6.5
aI1
asS'Diedrich Bader'
p7003
(lp7004
F3.5
aI1
asS'Laura Jordan'
p7005
(lp7006
F5.1
aI1
asS'Michael Carbonaro'
p7007
(lp7008
F5.0
aI1
asS'Carrie-Anne Moss'
p7009
(lp7010
F6.6
aI4
asS'Michael Kenneth Williams'
p7011
(lp7012
F6.4
aI1
asS'Kelly Vitz'
p7013
(lp7014
F4.3
aI1
asS'Jesus Castanos'
p7015
(lp7016
F7.1
aI1
asS'Malika Belbey'
p7017
(lp7018
F6.5
aI1
asS'\xc3\x81ngel On\xc3\xa9simo Nevares'
p7019
(lp7020
F7.2
aI1
asS'Gillian Anderson'
p7021
(lp7022
F6.800000000000001
aI2
asS'Nicki Aycox'
p7023
(lp7024
F5.1
aI1
asS'Casey Kasem'
p7025
(lp7026
F6.7
aI1
asS'Helen Mirren'
p7027
(lp7028
F7.1
aI4
asS'Christine Taylor'
p7029
(lp7030
F4.2
aI1
asS'Maury Sterling'
p7031
(lp7032
F5.1
aI1
asS'Kate Mara'
p7033
(lp7034
F6.95
aI2
asS'Hidetoshi Hoshida'
p7035
(lp7036
F3.8
aI1
asS'Emily Rios'
p7037
(lp7038
F7.1
aI1
asS'John Taylor'
p7039
(lp7040
F2.1
aI1
asS'Beno\xc3\xaet Poelvoorde'
p7041
(lp7042
F6.7
aI1
asS'Toby Stephens'
p7043
(lp7044
F6.6
aI1
asS'Garth Jennings'
p7045
(lp7046
F7.2
aI1
asS'Angela Wesselman-Pierce'
p7047
(lp7048
F7.1
aI1
asS'Louis Koo'
p7049
(lp7050
F6.5
aI1
asS'Zelin Xu'
p7051
(lp7052
F6.5
aI1
asS'Wanda Sykes'
p7053
(lp7054
F6.8
aI1
asS'Erdem Akakce'
p7055
(lp7056
F7.0
aI1
asS'Paul Ehrlich'
p7057
(lp7058
F7.0
aI1
asS'Mun-shik Lee'
p7059
(lp7060
F5.8
aI1
asS'Sameera Reddy'
p7061
(lp7062
F6.0
aI1
asS'Sabu Kawahara'
p7063
(lp7064
F4.6
aI1
asS'Marko Matvere'
p7065
(lp7066
F6.7
aI1
asS'Cascy Beddow'
p7067
(lp7068
F5.0
aI1
asS'Koen De Bouw'
p7069
(lp7070
F7.4
aI1
asS'Del Zamora'
p7071
(lp7072
F3.9
aI1
asS'Gwyneth Paltrow'
p7073
(lp7074
F7.333333333333333
aI3
asS'Clint Eastwood'
p7075
(lp7076
F8.2
aI1
asS'Austin Rogers'
p7077
(lp7078
F5.4
aI1
asS'Stephanie Bishop'
p7079
(lp7080
F7.2
aI1
asS'Anne Heche'
p7081
(lp7082
F6.5
aI2
asS'Ethan Hawke'
p7083
(lp7084
F7.0
aI2
asS'Dylan Walsh'
p7085
(lp7086
F7.2
aI1
asS'Richard Bull'
p7087
(lp7088
F3.1
aI1
asS'Max Thieriot'
p7089
(lp7090
F5.666666666666667
aI3
asS'Kelly Lin'
p7091
(lp7092
F6.6
aI1
asS'Michael J. Reynolds'
p7093
(lp7094
F5.8
aI1
asS'Tinnu Anand'
p7095
(lp7096
F7.3
aI1
asS'Gabrielle Union'
p7097
(lp7098
F5.1
aI2
asS'Tadanobu Asano'
p7099
(lp7100
F6.8999999999999995
aI3
asS'Maria Conchita Alonso'
p7101
(lp7102
F3.9
aI1
asS'Richard Cole'
p7103
(lp7104
F9.0
aI1
asS'Jonathan Chan-Pensley'
p7105
(lp7106
F6.4
aI1
asS'Sten Ljunggren'
p7107
(lp7108
F7.2
aI1
asS'Danny Masterson'
p7109
(lp7110
F5.8
aI1
asS'Niall Bruton'
p7111
(lp7112
F5.4
aI1
asS'Steve Harris'
p7113
(lp7114
F6.0
aI1
asS'Ren\xc3\xa9 Alvarado'
p7115
(lp7116
F6.7
aI1
asS'Ju-bong Gi'
p7117
(lp7118
F6.7
aI1
asS'Laz Alonso'
p7119
(lp7120
F6.0
aI1
asS'Leslie Nielsen'
p7121
(lp7122
F4.5
aI1
asS'Ally Sheedy'
p7123
(lp7124
F5.5
aI1
asS'Matt Long'
p7125
(lp7126
F5.75
aI2
asS'Ho-jin Chun'
p7127
(lp7128
F6.65
aI2
asS'Ray Wise'
p7129
(lp7130
F5.7
aI1
asS'Ashley Benson'
p7131
(lp7132
F5.3
aI1
asS'German Yanez'
p7133
(lp7134
F7.6
aI1
asS'Judi Dench'
p7135
(lp7136
F6.7
aI1
asS'Kelly Chapek'
p7137
(lp7138
F5.0
aI1
asS'Damien Christopher'
p7139
(lp7140
F3.2
aI1
asS'Nick Nolte'
p7141
(lp7142
F6.4
aI4
asS'Mitch Baker'
p7143
(lp7144
F7.1
aI1
asS'Abby Fung'
p7145
(lp7146
F4.9
aI1
asS'Rich Cooper'
p7147
(lp7148
F5.9
aI1
asS'Christian Slater'
p7149
(lp7150
F6.9
aI1
asS'Salvatore Abbruzzese'
p7151
(lp7152
F7.0
aI1
asS'Elizabeth Keener'
p7153
(lp7154
F6.6
aI1
asS'Frank Pando'
p7155
(lp7156
F5.6
aI1
asS'Ryeong-hun Ri'
p7157
(lp7158
F5.6
aI1
asS'Ben Stein'
p7159
(lp7160
F3.7
aI1
asS'Caroline Aaron'
p7161
(lp7162
F6.4
aI1
asS'Ryan Baker'
p7163
(lp7164
F6.6
aI1
asS'Greg Franklin'
p7165
(lp7166
F6.9
aI1
asS'Pamela Tola'
p7167
(lp7168
F5.3
aI1
asS'Leon Jay Williams'
p7169
(lp7170
F4.9
aI1
asS'Maile Flanagan'
p7171
(lp7172
F7.0
aI1
asS'Carlos Alazraqui'
p7173
(lp7174
F6.5
aI1
asS'Daniel Liu'
p7175
(lp7176
F6.7
aI1
asS'Martin Compston'
p7177
(lp7178
F6.9
aI1
asS'Cristian Solimeno'
p7179
(lp7180
F4.1
aI2
asS'Peter Ho'
p7181
(lp7182
F6.8
aI1
asS'Moritz Bleibtreu'
p7183
(lp7184
F7.4
aI1
asS'Rick Derby'
p7185
(lp7186
F7.2
aI1
asS'Cerina Vincent'
p7187
(lp7188
F4.6
aI1
asS'Milhem Cortaz'
p7189
(lp7190
F8.1
aI2
asS'Wayne Bassett'
p7191
(lp7192
F4.9
aI1
asS'David Thewlis'
p7193
(lp7194
F5.2
aI2
asS'Jay Lagaaia'
p7195
(lp7196
F6.5
aI1
asS'Ashley'
p7197
(lp7198
F7.0
aI1
asS'Lun Mei Gwei'
p7199
(lp7200
F6.3
aI2
asS'Irrfan Khan'
p7201
(lp7202
F6.449999999999999
aI2
asS'Tom Wright'
p7203
(lp7204
F5.4
aI1
asS'Anna Connelly'
p7205
(lp7206
F7.0
aI1
asS'Suk-kyu Han'
p7207
(lp7208
F6.35
aI2
asS'Seu Jorge'
p7209
(lp7210
F6.8
aI1
asS'Denzel Whitaker'
p7211
(lp7212
F6.199999999999999
aI2
asS'Sophie Okonedo'
p7213
(lp7214
F6.85
aI2
asS'Tabitha St. Germain'
p7215
(lp7216
F7.8
aI1
asS'Joey Lauren Adams'
p7217
(lp7218
F5.8
aI1
asS'Jonah Bobo'
p7219
(lp7220
F6.5
aI1
asS'Lauren Aboulafia'
p7221
(lp7222
F6.6
aI1
asS'William Ackman'
p7223
(lp7224
F8.3
aI1
asS'Michael Merrill'
p7225
(lp7226
F1.0
aI1
asS'Jared Leto'
p7227
(lp7228
F7.2
aI2
asS'Valerie Richards'
p7229
(lp7230
F7.2
aI1
asS'Shea Adams'
p7231
(lp7232
F6.6
aI1
asS'Romy Rosemont'
p7233
(lp7234
F7.4
aI1
asS'Laura Dern'
p7235
(lp7236
F6.2
aI3
asS'Jessica Hynes'
p7237
(lp7238
F5.8
aI1
asS'David Frost'
p7239
(lp7240
F7.0
aI1
asS'Matt Hardy'
p7241
(lp7242
F7.5
aI1
asS'Yeong-jin Jo'
p7243
(lp7244
F7.5
aI1
asS'David Higgins'
p7245
(lp7246
F7.4
aI1
asS'David Ber\xc3\xb3n'
p7247
(lp7248
F6.7
aI1
asS'Dmitriy Nazarov'
p7249
(lp7250
F7.6
aI1
asS'Yulai Lu'
p7251
(lp7252
F7.25
aI2
asS'Hardy Jones'
p7253
(lp7254
F8.5
aI1
asS'Charlie Creed-Miles'
p7255
(lp7256
F7.2
aI1
asS'Paul Mark Elliott'
p7257
(lp7258
F6.0
aI1
asS'Jenjira Pongpas'
p7259
(lp7260
F7.05
aI2
asS'Udo Kier'
p7261
(lp7262
F3.1
aI1
asS'Shantel VanSanten'
p7263
(lp7264
F5.2
aI1
asS'Ron Dennis'
p7265
(lp7266
F8.6
aI1
asS'Mait Malmsten'
p7267
(lp7268
F6.8
aI1
asS'Kathy Baker'
p7269
(lp7270
F6.75
aI2
asS'Nathan Phillips'
p7271
(lp7272
F4.75
aI2
asS'Diarmuid Noyes'
p7273
(lp7274
F6.7
aI1
asS'Tony Todd'
p7275
(lp7276
F5.2
aI4
asS'Adeola Ariyo'
p7277
(lp7278
F6.0
aI1
asS'Ulrich Thomsen'
p7279
(lp7280
F6.0
aI2
asS'Billy Roche'
p7281
(lp7282
F6.2
aI1
asS'Jasper Polish'
p7283
(lp7284
F6.3
aI1
asS'Sakda Kaewbuadee'
p7285
(lp7286
F6.6
aI1
asS'Juno Mak'
p7287
(lp7288
F6.8
aI1
asS'Julie Cox'
p7289
(lp7290
F5.6
aI2
asS'Eamonn Walker'
p7291
(lp7292
F6.95
aI2
asS'Habib Boufares'
p7293
(lp7294
F7.4
aI1
asS'Mustafa Kamel'
p7295
(lp7296
F8.2
aI1
asS'Justin Chatwin'
p7297
(lp7298
F6.3
aI1
asS'T\xc3\xb5nu Kark'
p7299
(lp7300
F6.75
aI2
asS'Manju Singh'
p7301
(lp7302
F4.8
aI1
asS'Thierry Neuvic'
p7303
(lp7304
F6.5
aI1
asS'Jennifer Aniston'
p7305
(lp7306
F6.0
aI4
asS'Erica Ellis'
p7307
(lp7308
F7.2
aI1
asS'William Zabka'
p7309
(lp7310
F6.6
aI1
asS'Banksy'
p7311
(lp7312
F8.0
aI1
asS'Takeshi Kaga'
p7313
(lp7314
F7.4
aI1
asS'Mary Elizabeth Ellis'
p7315
(lp7316
F6.3
aI1
asS'Dae-han Ji'
p7317
(lp7318
F6.5
aI1
asS'Tanushree Dutta'
p7319
(lp7320
F3.5
aI1
asS'Natascha McElhone'
p7321
(lp7322
F6.8
aI1
asS'James Rolleston'
p7323
(lp7324
F7.5
aI1
asS'Ian Holm'
p7325
(lp7326
F7.35
aI2
asS'Nana Eikura'
p7327
(lp7328
F6.4
aI1
asS'Scotty Noyd Jr.'
p7329
(lp7330
F6.2
aI1
asS'Carmen Ejogo'
p7331
(lp7332
F7.1
aI1
asS'Adele Harlin'
p7333
(lp7334
F7.0
aI1
asS'James Earl Jones'
p7335
(lp7336
F5.3
aI1
asS'Min-seo Chae'
p7337
(lp7338
F5.4
aI1
asS'George Newbern'
p7339
(lp7340
F5.35
aI2
asS'Marylouise Burke'
p7341
(lp7342
F6.9
aI1
asS'Stephen Tobolowsky'
p7343
(lp7344
F7.0
aI1
asS'Ian McKellen'
p7345
(lp7346
F6.925
aI4
asS'Bee Vang'
p7347
(lp7348
F8.2
aI1
asS'Siu-Ho Chin'
p7349
(lp7350
F6.8
aI1
asS'Rhiannon Leigh Wryn'
p7351
(lp7352
F6.3
aI1
asS'Saurabh Shukla'
p7353
(lp7354
F7.95
aI2
asS'Kerry Fox'
p7355
(lp7356
F5.0
aI2
asS'Stephen Park'
p7357
(lp7358
F5.2
aI1
asS'Brad Ashten'
p7359
(lp7360
F3.1
aI1
asS'Kathleen Turner'
p7361
(lp7362
F7.1
aI1
asS'Zo\xc3\xa9 F\xc3\xa9lix'
p7363
(lp7364
F7.1
aI1
asS'Eric Colvin'
p7365
(lp7366
F4.9
aI1
asS'Sarunyu Wongkrachang'
p7367
(lp7368
F6.2
aI1
asS'Tony Kgoroge'
p7369
(lp7370
F7.15
aI2
asS'Olivier Barthelemy'
p7371
(lp7372
F5.7
aI1
asS'Megumi Yokota'
p7373
(lp7374
F7.9
aI1
asS'Dong Han'
p7375
(lp7376
F5.2
aI1
asS'Matthew Mason'
p7377
(lp7378
F7.2
aI1
asS'Essence Atkins'
p7379
(lp7380
F3.5
aI1
asS'Stephen Fry'
p7381
(lp7382
F6.35
aI2
asS'T\xc3\xb4ru Furuya'
p7383
(lp7384
F7.7
aI1
asS'Kevin Kline'
p7385
(lp7386
F6.9
aI2
asS'Won-ju Moon'
p7387
(lp7388
F5.9
aI1
asS'Said Faraj'
p7389
(lp7390
F6.9
aI1
asS'Matt Riddlehoover'
p7391
(lp7392
F4.4
aI1
asS'Christopher Egan'
p7393
(lp7394
F4.8
aI1
asS'Anson Mount'
p7395
(lp7396
F5.6
aI1
asS'Cemal H\xc3\xbcnal'
p7397
(lp7398
F6.9
aI1
asS'Casey Affleck'
p7399
(lp7400
F6.9
aI2
asS'Yayako Uchida'
p7401
(lp7402
F7.4
aI1
asS'Cory Fernandez'
p7403
(lp7404
F5.6
aI1
asS'So-young Ko'
p7405
(lp7406
F5.949999999999999
aI2
asS'Andrzej Chyra'
p7407
(lp7408
F7.0
aI1
asS'Robin Tunney'
p7409
(lp7410
F6.9
aI1
asS'Jonathan Levit'
p7411
(lp7412
F2.1
aI1
asS'Margarita Hall'
p7413
(lp7414
F5.2
aI1
asS'AnnaSophia Robb'
p7415
(lp7416
F5.7
aI2
asS'Jos\xc3\xa9 F\xc3\xa9lix G\xc3\xb3mez'
p7417
(lp7418
F6.1
aI1
asS'Danielle Harris'
p7419
(lp7420
F5.4
aI1
asS'Sarah Aldrich'
p7421
(lp7422
F5.4
aI1
asS'Fran\xc3\xa7ois Cluzet'
p7423
(lp7424
F7.6
aI1
asS'David Roper'
p7425
(lp7426
F7.6
aI1
asS'Tsutomu Yamazaki'
p7427
(lp7428
F8.1
aI1
asS'Joshua Close'
p7429
(lp7430
F4.5
aI1
asS'Yuzheng Chen'
p7431
(lp7432
F7.4
aI1
asS'Marilyn Jurman'
p7433
(lp7434
F7.2
aI1
asS'Michael Moore'
p7435
(lp7436
F8.1
aI1
asS'Thomas Calabro'
p7437
(lp7438
F6.6
aI1
asS'Aisha Tyler'
p7439
(lp7440
F6.9
aI1
asS'Vegar Hoel'
p7441
(lp7442
F6.4
aI1
asS'John Henry Cox'
p7443
(lp7444
F6.2
aI1
asS'Mary Monaco'
p7445
(lp7446
F7.0
aI1
asS'Faune Chambers Watkins'
p7447
(lp7448
F7.8
aI1
asS'Rodrigo dos Santos'
p7449
(lp7450
F7.3
aI1
asS'Bruce Campbell'
p7451
(lp7452
F6.0
aI2
asS'Amy Weber'
p7453
(lp7454
F1.7
aI1
asS'Nicholas Elia'
p7455
(lp7456
F6.1
aI1
asS'Scott Menville'
p7457
(lp7458
F6.8
aI1
asS'Adam Campbell'
p7459
(lp7460
F2.5
aI2
asS'Zo\xc3\xab Bell'
p7461
(lp7462
F7.35
aI2
asS'Tae-hee Kim'
p7463
(lp7464
F5.8
aI1
asS'Anonymous Boy'
p7465
(lp7466
F7.2
aI1
asS'Graham Greene'
p7467
(lp7468
F6.2
aI1
asS'Larry the Cable Guy'
p7469
(lp7470
F4.2
aI4
asS'Kristen Bell'
p7471
(lp7472
F5.8999999999999995
aI3
asS'Jun Sung Kim'
p7473
(lp7474
F6.4
aI1
asS'Chaiwat Thongsaeng'
p7475
(lp7476
F6.1
aI1
asS'Evan Crispin'
p7477
(lp7478
F8.3
aI1
asS'Brian Cox'
p7479
(lp7480
F6.5
aI2
asS'Yuqi Zhang'
p7481
(lp7482
F5.75
aI2
asS'Zackie Achmat'
p7483
(lp7484
F6.8
aI1
asS'Mi-kyung Kim'
p7485
(lp7486
F7.5
aI1
asS'Emily Hampshire'
p7487
(lp7488
F6.25
aI2
asS'Luke Wilson'
p7489
(lp7490
F5.757142857142858
aI7
asS'Antonio Banderas'
p7491
(lp7492
F6.3999999999999995
aI3
asS'Fran\xc3\xa7ois Damiens'
p7493
(lp7494
F6.8
aI1
asS'Gina McKee'
p7495
(lp7496
F7.5
aI1
asS'Nat Faxon'
p7497
(lp7498
F6.7
aI1
asS'Daniel Wu'
p7499
(lp7500
F6.8
aI2
asS'Ralph Riach'
p7501
(lp7502
F6.8
aI1
asS'Luke Goss'
p7503
(lp7504
F4.1
aI1
asS'Alana DiMaria'
p7505
(lp7506
F2.2
aI1
asS'Zhangke Jia'
p7507
(lp7508
F5.5
aI1
asS'Grace Park'
p7509
(lp7510
F6.4
aI1
asS'Alexandru Potocean'
p7511
(lp7512
F7.3
aI1
asS'Emma Thompson'
p7513
(lp7514
F6.7
aI1
asS'Alicia Keys'
p7515
(lp7516
F6.75
aI2
asS'Kevin Kirk'
p7517
(lp7518
F6.9
aI1
asS'Jae-hyeon Jo'
p7519
(lp7520
F5.9
aI1
asS'An Nguyen'
p7521
(lp7522
F7.2
aI1
asS'Miguel Sandoval'
p7523
(lp7524
F3.9
aI1
asS'Timothy Hutton'
p7525
(lp7526
F6.0249999999999995
aI4
asS'Yasmine Al Massri'
p7527
(lp7528
F7.2
aI1
asS'Michael Cera'
p7529
(lp7530
F6.699999999999999
aI6
asS'Henry Kingsmill'
p7531
(lp7532
F7.8
aI1
asS'Kyeon Lee'
p7533
(lp7534
F6.1
aI1
asS'Toby Regbo'
p7535
(lp7536
F6.5
aI1
asS'Madison Pettis'
p7537
(lp7538
F6.2
aI1
asS'Drew Barrymore'
p7539
(lp7540
F6.550000000000001
aI2
asS'Kate Beckinsale'
p7541
(lp7542
F6.65
aI4
asS'Maggie Grace'
p7543
(lp7544
F6.7
aI2
asS'Jennifer Hale'
p7545
(lp7546
F6.0
aI1
asS'Allen Achterberg'
p7547
(lp7548
F6.9
aI1
asS'Polly Adams'
p7549
(lp7550
F7.6
aI1
asS'Tassawan Seneewongse'
p7551
(lp7552
F6.9
aI1
asS'Drew Seeley'
p7553
(lp7554
F5.9
aI1
asS'Dany Boon'
p7555
(lp7556
F7.15
aI2
asS'Takako Fuji'
p7557
(lp7558
F5.0
aI1
asS'Reiko Aylesworth'
p7559
(lp7560
F4.7
aI1
asS'Trula M. Marcus'
p7561
(lp7562
F6.0
aI1
asS'Andr\xc3\xa9 Sogliuzzo'
p7563
(lp7564
F5.2
aI1
asS'Michelle Hurst'
p7565
(lp7566
F6.6
aI1
asS'Nam-gil Kim'
p7567
(lp7568
F6.9
aI2
asS'M\xc3\xa9lanie Thierry'
p7569
(lp7570
F5.6
aI1
asS'Tae-gyu Bong'
p7571
(lp7572
F5.9
aI1
asS'Piper Perabo'
p7573
(lp7574
F6.066666666666666
aI3
asS'Frank Welker'
p7575
(lp7576
F6.65
aI2
asS'Joel Tobeck'
p7577
(lp7578
F6.8
aI1
asS'Holly Valance'
p7579
(lp7580
F4.8
aI1
asS'Annie Allix'
p7581
(lp7582
F7.9
aI1
asS'Chris Haywood'
p7583
(lp7584
F6.4
aI1
asS'Clancy Brown'
p7585
(lp7586
F5.4
aI1
asS'Joe Keithley'
p7587
(lp7588
F7.4
aI1
asS'Brandon Carroll'
p7589
(lp7590
F5.5
aI1
asS'Viola Armstrong'
p7591
(lp7592
F8.1
aI1
asS'Caleb Campbell'
p7593
(lp7594
F3.2
aI1
asS'Kyeong-ho Jeong'
p7595
(lp7596
F6.433333333333334
aI3
asS'Ben Stiller'
p7597
(lp7598
F6.125
aI4
asS'Noel Clarke'
p7599
(lp7600
F6.8
aI1
asS'Katharine Isabelle'
p7601
(lp7602
F5.9
aI1
asS'Kareena Kapoor'
p7603
(lp7604
F6.7749999999999995
aI4
asS'Jamie Bell'
p7605
(lp7606
F6.65
aI2
asS'Adewale Akinnuoye-Agbaje'
p7607
(lp7608
F5.8
aI1
asS'Michael Nyqvist'
p7609
(lp7610
F7.166666666666667
aI3
asS'Genjitsu Shu'
p7611
(lp7612
F6.1
aI1
asS'Mark Ruffalo'
p7613
(lp7614
F7.575
aI4
asS'Taavi Eelmaa'
p7615
(lp7616
F7.25
aI2
asS'Brooke Nevin'
p7617
(lp7618
F4.7
aI2
asS'Julie Walters'
p7619
(lp7620
F7.1
aI1
asS'Noel Rodriguez'
p7621
(lp7622
F7.2
aI1
asS'Emmanuelle Seigner'
p7623
(lp7624
F7.85
aI2
asS'Won-hie Lim'
p7625
(lp7626
F5.3
aI1
asS'Peter Stickles'
p7627
(lp7628
F4.4
aI1
asS'Damien Garvey'
p7629
(lp7630
F6.5
aI1
asS'Alexander Chapman'
p7631
(lp7632
F6.8
aI1
asS'Mick Partridge'
p7633
(lp7634
F2.0
aI1
asS'Joshua Alscher'
p7635
(lp7636
F7.0
aI1
asS'Gad Elmaleh'
p7637
(lp7638
F7.1
aI1
asS'Russell Brand'
p7639
(lp7640
F6.85
aI4
asS'Irene Azuela'
p7641
(lp7642
F7.2
aI1
asS'Tommy Gunn'
p7643
(lp7644
F6.3
aI1
asS'Beom-su Lee'
p7645
(lp7646
F7.6
aI1
asS'Vallo Kirs'
p7647
(lp7648
F8.1
aI1
asS'Jon Huertas'
p7649
(lp7650
F5.4
aI2
asS'Fan Liao'
p7651
(lp7652
F6.4
aI1
asS'Yongkun Bae'
p7653
(lp7654
F7.7
aI1
asS'David Mitchell'
p7655
(lp7656
F6.0
aI1
asS'Curtis Armstrong'
p7657
(lp7658
F6.5
aI2
asS'Michael Ealy'
p7659
(lp7660
F6.1
aI2
asS'Kate Dickie'
p7661
(lp7662
F6.15
aI2
asS'Zachary Levi'
p7663
(lp7664
F4.55
aI2
asS'Till Dilumi\xc3\xa8re'
p7665
(lp7666
F4.9
aI1
asS'Adam Barrie'
p7667
(lp7668
F5.1
aI1
asS'Michael Hurst'
p7669
(lp7670
F4.5
aI1
asS'Leonie Benesch'
p7671
(lp7672
F7.8
aI1
asS'Mindy Cohn'
p7673
(lp7674
F6.7
aI1
asS'Elias Koteas'
p7675
(lp7676
F5.4
aI2
asS'Hayato Ichihara'
p7677
(lp7678
F6.95
aI2
asS'Araceli Guzman-Rico'
p7679
(lp7680
F7.1
aI1
asS'Mark Harmon'
p7681
(lp7682
F5.9
aI1
asS'Matthew Braden Stringer'
p7683
(lp7684
F8.1
aI1
asS'Miyavi Matsunoi'
p7685
(lp7686
F5.9
aI1
asS'Peter Capaldi'
p7687
(lp7688
F7.5
aI1
asS'Jacqueline Lord'
p7689
(lp7690
F4.1
aI1
asS'Walton Goggins'
p7691
(lp7692
F6.4
aI1
asS'Alejandro Goic'
p7693
(lp7694
F7.4
aI1
asS'Russell Crowe'
p7695
(lp7696
F6.966666666666666
aI6
asS'Abdelhamid Aktouche'
p7697
(lp7698
F7.4
aI1
asS'Olivia Bonamy'
p7699
(lp7700
F6.5
aI1
asS'Shia LaBeouf'
p7701
(lp7702
F6.671428571428572
aI7
asS'Lola Due\xc3\xb1as'
p7703
(lp7704
F7.6
aI1
asS'Jenna Dewan Tatum'
p7705
(lp7706
F6.5
aI1
asS'Zachery Ty Bryan'
p7707
(lp7708
F6.0
aI1
asS'Andy Parkin'
p7709
(lp7710
F6.8
aI1
asS'Lynn Shelton'
p7711
(lp7712
F6.1
aI1
asS'Stephen Dervan'
p7713
(lp7714
F6.5
aI1
asS'Missi Pyle'
p7715
(lp7716
F6.2
aI1
asS'Will Poulter'
p7717
(lp7718
F6.75
aI2
asS'C\xc3\xa9cile De France'
p7719
(lp7720
F6.5
aI1
asS'Sakie Yokota'
p7721
(lp7722
F7.9
aI1
asS'Joe Unger'
p7723
(lp7724
F6.3
aI1
asS'Megan Van Kerro'
p7725
(lp7726
F4.9
aI1
asS'Mithra Kurian'
p7727
(lp7728
F6.4
aI1
asS'Jeremy Northam'
p7729
(lp7730
F5.9
aI1
asS'Michael Caine'
p7731
(lp7732
F8.15
aI4
asS'Melissa Lyons'
p7733
(lp7734
F6.2
aI1
asS'Eunice Cho'
p7735
(lp7736
F7.0
aI1
asS'Malik Yoba'
p7737
(lp7738
F5.6
aI1
asS'Tara Elders'
p7739
(lp7740
F6.9
aI1
asS'Tony Benn'
p7741
(lp7742
F8.1
aI1
asS'Cameron Boyce'
p7743
(lp7744
F6.2
aI1
asS'Yeh-jin Park'
p7745
(lp7746
F6.8
aI1
asS'Jake Johnson'
p7747
(lp7748
F6.0
aI1
asS'Jong-hak Choi'
p7749
(lp7750
F7.6
aI1
asS'Heather Dawn'
p7751
(lp7752
F3.2
aI1
asS'David DArcy'
p7753
(lp7754
F7.7
aI1
asS'Jenny OHara'
p7755
(lp7756
F6.3
aI1
asS'Jun Gyu Park'
p7757
(lp7758
F6.5
aI1
asS'Faisal Abdullah'
p7759
(lp7760
F7.3
aI1
asS'Lynn Pendleton'
p7761
(lp7762
F6.8
aI1
asS'Tom Wilkinson'
p7763
(lp7764
F6.800000000000001
aI6
asS'Callum Keith Rennie'
p7765
(lp7766
F7.6
aI1
asS'Christopher Plummer'
p7767
(lp7768
F7.2
aI7
asS'Mitsutaka Itakura'
p7769
(lp7770
F7.9
aI1
asS'Richard Jenkins'
p7771
(lp7772
F6.8
aI3
asS'Jennifer Ellison'
p7773
(lp7774
F6.2
aI1
asS'Karthika'
p7775
(lp7776
F4.0
aI1
asS'Jonathan Tucker'
p7777
(lp7778
F5.9
aI1
asS'Kyeong-ik Kim'
p7779
(lp7780
F6.8
aI1
asS'Bernardo Ben\xc3\xadtez'
p7781
(lp7782
F7.2
aI1
asS'Arthur Acu\xc3\xb1a'
p7783
(lp7784
F5.8
aI1
asS'DeJare Barfield'
p7785
(lp7786
F5.3
aI1
asS'Matt Cable'
p7787
(lp7788
F6.8
aI1
asS'Dimple Kapadia'
p7789
(lp7790
F6.3
aI1
asS'John Patrick Amedori'
p7791
(lp7792
F6.6
aI1
asS'Danielle Savre'
p7793
(lp7794
F6.5
aI1
asS'Tetsuro Sakagami'
p7795
(lp7796
F5.0
aI1
asS'Rade Serbedzija'
p7797
(lp7798
F6.0
aI1
asS'Andr\xc3\xa9 Hennicke'
p7799
(lp7800
F6.3
aI1
asS'Andr\xc3\xa9 Dussollier'
p7801
(lp7802
F7.4
aI2
asS'Supassra Ruangwong'
p7803
(lp7804
F4.4
aI1
asS'Chad Todhunter'
p7805
(lp7806
F5.1
aI1
asS'Emily Osment'
p7807
(lp7808
F4.2
aI1
asS'Kevin McKidd'
p7809
(lp7810
F5.8
aI1
asS'Kelly Carlson'
p7811
(lp7812
F4.7
aI1
asS'Tanoai Reed'
p7813
(lp7814
F3.2
aI1
asS'Catinca Untaru'
p7815
(lp7816
F7.9
aI1
asS'Ed Harris'
p7817
(lp7818
F7.266666666666667
aI3
asS'Ioana Barbu'
p7819
(lp7820
F7.0
aI1
asS'Stephen Guarino'
p7821
(lp7822
F4.7
aI1
asS'Richard Lobb'
p7823
(lp7824
F7.9
aI1
asS'Kathleen Wilhoite'
p7825
(lp7826
F6.2
aI1
asS'Minase Yashiro'
p7827
(lp7828
F5.9
aI1
asS'Aaran Thomas'
p7829
(lp7830
F6.2
aI1
asS'Michelle Van Der Water'
p7831
(lp7832
F3.6
aI1
asS'Vera Farmiga'
p7833
(lp7834
F7.0
aI1
asS'Jennifer Ulrich'
p7835
(lp7836
F7.6
aI1
asS'Jos\xc3\xa9 Mar\xc3\xada Yazpik'
p7837
(lp7838
F5.300000000000001
aI2
asS'Chuck Cooper'
p7839
(lp7840
F5.8
aI1
asS'Roxy Saint'
p7841
(lp7842
F4.1
aI1
asS'Chiwetel Ejiofor'
p7843
(lp7844
F7.1
aI4
asS'Michael Sheen'
p7845
(lp7846
F6.766666666666666
aI3
asS'Ikhlaq Khan'
p7847
(lp7848
F5.1
aI1
asS'Rekha'
p7849
(lp7850
F6.3
aI1
asS'Rudy Youngblood'
p7851
(lp7852
F7.8
aI1
asS'Alex Feldman'
p7853
(lp7854
F3.9
aI1
asS'Ryan McFarland'
p7855
(lp7856
F6.8
aI1
asS'Michael C. Williams'
p7857
(lp7858
F5.6
aI1
asS'Brie Larson'
p7859
(lp7860
F5.6
aI1
asS'Emily Mulaya'
p7861
(lp7862
F7.7
aI1
asS'Stephen Armstrong'
p7863
(lp7864
F8.1
aI1
asS'Craig Roberts'
p7865
(lp7866
F7.3
aI1
asS'Roger Salvany'
p7867
(lp7868
F7.5
aI1
asS'Damian Lewis'
p7869
(lp7870
F5.949999999999999
aI2
asS'Mark Taylor'
p7871
(lp7872
F7.0
aI1
asS'Mamusu Kallon'
p7873
(lp7874
F6.5
aI1
asS'Jeff F. Renfro'
p7875
(lp7876
F3.6
aI1
asS'J.R. Cruz'
p7877
(lp7878
F7.1
aI1
asS'Joan Crawford'
p7879
(lp7880
F1.0
aI1
asS'Tricia OKelley'
p7881
(lp7882
F5.9
aI1
asS'Michael Bennett'
p7883
(lp7884
F7.5
aI1
asS'Anna Crookes'
p7885
(lp7886
F7.7
aI1
asS'Jordi Moll\xc3\xa0'
p7887
(lp7888
F6.3
aI1
asS'Will Shadley'
p7889
(lp7890
F5.4
aI1
asS'Brennan Elliott'
p7891
(lp7892
F6.3
aI1
asS'Xiao Che'
p7893
(lp7894
F6.8
aI1
asS'Chris Pratt'
p7895
(lp7896
F5.4
aI1
asS'Steven Cheung'
p7897
(lp7898
F6.2
aI1
asS'Laura Linney'
p7899
(lp7900
F6.533333333333334
aI3
asS'Jagapathi Babu'
p7901
(lp7902
F4.3
aI1
asS'Hongwei Wang'
p7903
(lp7904
F6.7
aI1
asS'Stephen Dillane'
p7905
(lp7906
F5.550000000000001
aI2
asS'Archana'
p7907
(lp7908
F7.3
aI1
asS'Shayesteh Irani'
p7909
(lp7910
F7.3
aI1
asS'Hank Azaria'
p7911
(lp7912
F6.65
aI2
asS'Emile Hirsch'
p7913
(lp7914
F7.066666666666666
aI3
asS'Scott Mechlowicz'
p7915
(lp7916
F7.3
aI1
asS'Adam Yauch'
p7917
(lp7918
F7.5
aI1
asS'Kazunari Ninomiya'
p7919
(lp7920
F7.9
aI1
asS'Ji-min Han'
p7921
(lp7922
F5.9
aI1
asS'Siddique'
p7923
(lp7924
F6.7
aI1
asS'Llu\xc3\xads Homar'
p7925
(lp7926
F7.2
aI1
asS'Kirsten Dunst'
p7927
(lp7928
F6.25
aI2
asS'Michelle Duncan'
p7929
(lp7930
F5.5
aI1
asS'Gilbert Melki'
p7931
(lp7932
F6.7
aI1
asS'Jennifer Hudson'
p7933
(lp7934
F7.3
aI1
asS'Jay Baruchel'
p7935
(lp7936
F6.8999999999999995
aI3
asS'Maggie Q'
p7937
(lp7938
F5.466666666666666
aI3
asS'Anne Reid'
p7939
(lp7940
F5.9
aI1
asS'Josh Duhamel'
p7941
(lp7942
F6.25
aI4
asS'Raghu Babu'
p7943
(lp7944
F4.1
aI2
asS'Ice DAngelo'
p7945
(lp7946
F6.3
aI1
asS'Mark Dacascos'
p7947
(lp7948
F4.5
aI1
asS'Arbaaz Khan'
p7949
(lp7950
F7.4
aI1
asS'Bug Hall'
p7951
(lp7952
F4.8
aI1
asS'Patti Smith'
p7953
(lp7954
F7.2
aI1
asS'Ray Liotta'
p7955
(lp7956
F6.333333333333333
aI3
asS'Anh Thu'
p7957
(lp7958
F6.0
aI1
asS'Britt McKillip'
p7959
(lp7960
F7.8
aI1
asS'Danny Hoch'
p7961
(lp7962
F6.9
aI1
asS'Luenell'
p7963
(lp7964
F7.3
aI1
asS'Constantin Draganescu'
p7965
(lp7966
F3.7
aI1
asS'Mike Benna'
p7967
(lp7968
F6.7
aI1
asS'John Magaro'
p7969
(lp7970
F4.8
aI1
asS'Richard Riddell'
p7971
(lp7972
F6.9
aI1
asS'Kochakorn Suppakarnkitjakul'
p7973
(lp7974
F6.0
aI1
asS'Jeong-min Hwang'
p7975
(lp7976
F6.666666666666667
aI3
asS'Sarah Michelle Gellar'
p7977
(lp7978
F5.4
aI4
asS'Robin Wright'
p7979
(lp7980
F6.666666666666667
aI3
asS'Chafia Boudraa'
p7981
(lp7982
F6.7
aI1
asS'Jason Isaacs'
p7983
(lp7984
F5.9
aI1
asS'Philip Winchester'
p7985
(lp7986
F6.6
aI1
asS'Bharati Achrekar'
p7987
(lp7988
F4.35
aI2
asS'Craig S. Harper'
p7989
(lp7990
F6.0
aI1
asS'Hiroyuki Miyasako'
p7991
(lp7992
F6.6
aI1
asS'Cole Hauser'
p7993
(lp7994
F5.8
aI1
asS'Sima Mobarak-Shahi'
p7995
(lp7996
F7.3
aI1
asS'Josh Gad'
p7997
(lp7998
F6.2
aI1
asS'Maria Farrugia'
p7999
(lp8000
F2.4
aI1
asS'Dong-gun Jang'
p8001
(lp8002
F6.3
aI1
asS'Katheryn Winnick'
p8003
(lp8004
F5.2
aI1
asS'Jin-Young Jang'
p8005
(lp8006
F5.6
aI1
asS'Jodie Foster'
p8007
(lp8008
F6.8
aI2
asS'Freddie Highmore'
p8009
(lp8010
F6.450000000000001
aI4
asS'Henry Rollins'
p8011
(lp8012
F5.5
aI1
asS'Ampora Marie Sapp'
p8013
(lp8014
F8.0
aI1
asS'Farrukh Jaffar'
p8015
(lp8016
F7.5
aI1
asS'Lili Asvar'
p8017
(lp8018
F3.7
aI1
asS'Erena Ono'
p8019
(lp8020
F7.2
aI1
asS'Masaaki Akahori'
p8021
(lp8022
F7.2
aI1
asS'Yaya DaCosta'
p8023
(lp8024
F6.7
aI1
asS'Kevin Sherwood'
p8025
(lp8026
F8.1
aI1
asS'Karl Urban'
p8027
(lp8028
F5.4
aI1
asS'Mila Kunis'
p8029
(lp8030
F6.74
aI5
asS'Kat Dennings'
p8031
(lp8032
F6.125
aI4
asS'Becky Ann Baker'
p8033
(lp8034
F6.4
aI1
asS'Oliver Platt'
p8035
(lp8036
F4.9
aI1
asS'Saif Ali Khan'
p8037
(lp8038
F6.05
aI2
asS'Cheol-ho Choi'
p8039
(lp8040
F6.2
aI1
asS'Dong-wook Kim'
p8041
(lp8042
F7.1
aI1
asS'Shilpa Bala'
p8043
(lp8044
F5.1
aI1
asS'Paul Dawson'
p8045
(lp8046
F6.6
aI1
asS'Jeffrey Garcia'
p8047
(lp8048
F6.5
aI1
asS'Mariah Carey'
p8049
(lp8050
F7.4
aI1
asS'Rob Schneider'
p8051
(lp8052
F5.6
aI1
asS'Brett Bush'
p8053
(lp8054
F8.0
aI1
asS'Tom Berenger'
p8055
(lp8056
F5.1
aI1
asS'Carmen Serano'
p8057
(lp8058
F5.4
aI1
asS'Jason Flemyng'
p8059
(lp8060
F3.7
aI1
asS'Ivana Milicevic'
p8061
(lp8062
F4.5
aI1
asS'Marijke Hopen Alfarnes'
p8063
(lp8064
F5.2
aI1
asS'Anjan Srivastav'
p8065
(lp8066
F4.8
aI1
asS'Cybill Shepherd'
p8067
(lp8068
F5.3
aI1
asS'Jagathi Sreekumar'
p8069
(lp8070
F6.7
aI1
asS'Kang-woo Kim'
p8071
(lp8072
F5.9
aI1
asS'Marc Worden'
p8073
(lp8074
F6.0
aI1
asS'Dawn French'
p8075
(lp8076
F7.7
aI1
asS'Joshua Taylor'
p8077
(lp8078
F7.2
aI1
asS'Gregory Waller'
p8079
(lp8080
F5.6
aI1
asS'Nicola Peltz'
p8081
(lp8082
F4.2
aI1
asS'Stacey Dash'
p8083
(lp8084
F6.1
aI1
asS'Troy Lindsey Brown'
p8085
(lp8086
F7.4
aI1
asS'Annalee Jefferies'
p8087
(lp8088
F6.4
aI1
asS'Billy Bob Thornton'
p8089
(lp8090
F5.699999999999999
aI2
asS'Mike Papantonio'
p8091
(lp8092
F7.5
aI1
asS'Jacques Frantz'
p8093
(lp8094
F6.0
aI1
asS'Steven Strait'
p8095
(lp8096
F6.35
aI2
asS'Frank Whaley'
p8097
(lp8098
F4.5
aI2
asS'Kenyon Wells'
p8099
(lp8100
F6.8
aI1
asS'Mimi Lieber'
p8101
(lp8102
F7.5
aI1
asS'Chris Diamantopoulos'
p8103
(lp8104
F6.1
aI1
asS'Yun-seok Kim'
p8105
(lp8106
F7.35
aI2
asS'Jean-Claude Carri\xc3\xa8re'
p8107
(lp8108
F7.2
aI1
asS'Vanessa Born'
p8109
(lp8110
F5.3
aI1
asS'Brax Villa'
p8111
(lp8112
F6.2
aI1
asS'Atossa Leoni'
p8113
(lp8114
F7.6
aI1
asS'Jon Prescott'
p8115
(lp8116
F6.8
aI1
asS'Lorenzo Ausilia-Foret'
p8117
(lp8118
F7.1
aI1
asS'Bam Margera'
p8119
(lp8120
F7.1
aI2
asS'Philip Akin'
p8121
(lp8122
F5.9
aI1
asS'Ezzat Abou Aouf'
p8123
(lp8124
F6.2
aI1
asS'Mikko Leppilampi'
p8125
(lp8126
F5.3
aI1
asS'Will Patton'
p8127
(lp8128
F5.9
aI1
asS'Maya Lawson'
p8129
(lp8130
F7.5
aI1
asS'Mois\xc3\xa9s Acevedo'
p8131
(lp8132
F7.2
aI1
asS'Kris Lemche'
p8133
(lp8134
F5.8
aI1
asS'Yuan Tian'
p8135
(lp8136
F6.6
aI1
asS'Leo Ku'
p8137
(lp8138
F4.3
aI1
asS'Raghuvir Yadav'
p8139
(lp8140
F7.5
aI1
asS'Paz Vega'
p8141
(lp8142
F4.8
aI1
asS'Tim Blake Nelson'
p8143
(lp8144
F5.6
aI1
asS'Ashton Kutcher'
p8145
(lp8146
F5.9
aI4
asS'Cengiz Daner'
p8147
(lp8148
F7.9
aI1
asS'Shan Cong'
p8149
(lp8150
F5.8
aI1
asS'Katie A. Keane'
p8151
(lp8152
F8.0
aI1
asS'Rebecca Hall'
p8153
(lp8154
F6.960000000000001
aI5
asS'Miley Cyrus'
p8155
(lp8156
F4.8
aI4
asS'Sean Biggerstaff'
p8157
(lp8158
F7.2
aI1
asS'Karen Allen'
p8159
(lp8160
F6.550000000000001
aI2
asS'Sof\xc3\xada Vergara'
p8161
(lp8162
F5.2
aI1
asS'Marion Cotillard'
p8163
(lp8164
F7.7
aI1
asS'Michael Dorman'
p8165
(lp8166
F6.4
aI2
asS'Jong-ryol Choi'
p8167
(lp8168
F6.65
aI2
asS'Yeardley Smith'
p8169
(lp8170
F7.4
aI1
asS'Prabhas'
p8171
(lp8172
F4.6
aI1
asS'Hyo-jin Kong'
p8173
(lp8174
F5.8
aI2
asS'Conner Rayburn'
p8175
(lp8176
F6.050000000000001
aI2
asS'Shin-Hye Park'
p8177
(lp8178
F5.7
aI1
asS'K\xc3\xb4ichi Yamadera'
p8179
(lp8180
F7.7
aI1
asS'P\xc3\xa4rt Uusberg'
p8181
(lp8182
F8.1
aI1
asS'Jesse Moss'
p8183
(lp8184
F7.6
aI1
asS'Coriander Womack'
p8185
(lp8186
F3.6
aI1
asS'Rauno Juvonen'
p8187
(lp8188
F6.7
aI1
asS'Sheila Scullin'
p8189
(lp8190
F6.1
aI1
asS'Casper Van Dien'
p8191
(lp8192
F4.4
aI1
asS'Carla Quevedo'
p8193
(lp8194
F8.2
aI1
asS'Steve Zahn'
p8195
(lp8196
F6.3
aI5
asS'Erin Consalvi'
p8197
(lp8198
F3.1
aI1
asS'Yara Shahidi'
p8199
(lp8200
F5.6
aI1
asS'Ryan Reynolds'
p8201
(lp8202
F6.85
aI4
asS'Doris Tislar'
p8203
(lp8204
F7.2
aI1
asS'Dick Su'
p8205
(lp8206
F7.1
aI1
asS'Giovanni Ribisi'
p8207
(lp8208
F5.7
aI1
asS'Robert Ben Garant'
p8209
(lp8210
F5.9
aI1
asS'Bingbing Fan'
p8211
(lp8212
F6.1000000000000005
aI3
asS'Alex Fisher'
p8213
(lp8214
F6.2
aI1
asS'Brian Sergent'
p8215
(lp8216
F6.8
aI1
asS'Su-yeon Hong'
p8217
(lp8218
F5.7
aI1
asS'Leigh Enns'
p8219
(lp8220
F5.9
aI1
asS'Teruyuki Kagawa'
p8221
(lp8222
F6.7
aI1
asS'Mounika'
p8223
(lp8224
F5.8
aI1
asS'Val\xc3\xa9rie Bodson'
p8225
(lp8226
F7.2
aI1
asS'Robert Carlyle'
p8227
(lp8228
F5.6
aI2
asS'Aaron Eckhart'
p8229
(lp8230
F6.625
aI4
asS'Sarah Bolger'
p8231
(lp8232
F5.85
aI2
asS'Toshir\xc3\xb4 Yanagiba'
p8233
(lp8234
F6.1
aI1
asS'Leslie Bibb'
p8235
(lp8236
F6.1
aI1
asS'Nick Goldsmith'
p8237
(lp8238
F7.2
aI1
asS'Samantha Boscarino'
p8239
(lp8240
F5.4
aI1
asS'Dan Futterman'
p8241
(lp8242
F6.7
aI1
asS'Kuei-Mei Yang'
p8243
(lp8244
F5.3
aI1
asS'Shannon Eagen'
p8245
(lp8246
F6.9
aI1
asS'Trevor Wright'
p8247
(lp8248
F7.9
aI1
asS'Danny Huston'
p8249
(lp8250
F6.466666666666666
aI3
asS'Bo Huang'
p8251
(lp8252
F7.3
aI1
asS'Katt Williams'
p8253
(lp8254
F4.3
aI2
asS'Amir Arison'
p8255
(lp8256
F4.7
aI1
asS'Laura Kachergus'
p8257
(lp8258
F6.7
aI1
asS'Peter Anthony Tambakis'
p8259
(lp8260
F5.6
aI1
asS'Evan Rachel Wood'
p8261
(lp8262
F6.825
aI4
asS'Dax Shepard'
p8263
(lp8264
F6.2
aI3
asS'Taylor Momsen'
p8265
(lp8266
F6.7
aI1
asS'Neil Patrick Harris'
p8267
(lp8268
F7.5
aI2
asS'Zachary Gordon'
p8269
(lp8270
F6.2
aI1
asS'Rory Culkin'
p8271
(lp8272
F5.7
aI1
asS'Jeong-eun Kim'
p8273
(lp8274
F6.7
aI1
asS'Akshaye Khanna'
p8275
(lp8276
F4.0
aI1
asS'F\xc3\xa1bio Oliveira'
p8277
(lp8278
F7.0
aI1
asS'Storm Acheche Sahlstr\xc3\xb8m'
p8279
(lp8280
F6.6
aI1
asS'Ayesha Takia'
p8281
(lp8282
F4.0
aI1
asS'Michael Papajohn'
p8283
(lp8284
F3.1
aI1
asS'Beatriz Duarte'
p8285
(lp8286
F7.2
aI1
asS'Katherine Heigl'
p8287
(lp8288
F6.375
aI4
asS'Hilary Swank'
p8289
(lp8290
F6.359999999999999
aI5
asS'Crystal Reed'
p8291
(lp8292
F4.4
aI1
asS'Maria J\xc3\xa4rvenhelmi'
p8293
(lp8294
F6.9
aI1
asS'Katie Lyons'
p8295
(lp8296
F6.9
aI1
asS'Harry Kerrigan'
p8297
(lp8298
F6.3
aI1
asS'Danielle Skraastad'
p8299
(lp8300
F7.3
aI1
asS'Kevin Hart'
p8301
(lp8302
F6.1
aI1
asS'Regina King'
p8303
(lp8304
F6.1
aI1
asS'Samantha Triba'
p8305
(lp8306
F5.3
aI1
asS'Shirley Henderson'
p8307
(lp8308
F6.4
aI1
asS'Gabriel Macht'
p8309
(lp8310
F5.199999999999999
aI2
asS'Rachel McAdams'
p8311
(lp8312
F7.233333333333333
aI3
asS'James Brolin'
p8313
(lp8314
F6.35
aI2
asS'Mark Walton'
p8315
(lp8316
F6.9
aI1
asS'Katya Blumenberg'
p8317
(lp8318
F6.7
aI1
asS'Honoka Ishibashi'
p8319
(lp8320
F5.9
aI1
asS'Alex OLoughlin'
p8321
(lp8322
F5.3
aI1
asS'J.J. Johnson'
p8323
(lp8324
F7.6
aI1
asS'Andy Serkis'
p8325
(lp8326
F6.2
aI1
asS'Alice Braga'
p8327
(lp8328
F6.675000000000001
aI4
asS'Yousef Joe Sweid'
p8329
(lp8330
F7.4
aI1
asS'Kevin Costner'
p8331
(lp8332
F7.4
aI1
asS'Will Arnett'
p8333
(lp8334
F6.271428571428572
aI7
asS'Joe Nunez'
p8335
(lp8336
F6.7
aI1
asS'James Keane'
p8337
(lp8338
F7.3
aI1
asS'Masa Yamaguchi'
p8339
(lp8340
F7.0
aI1
asS'Richard Tyson'
p8341
(lp8342
F5.4
aI1
asS'Rainie Yang'
p8343
(lp8344
F6.3
aI1
asS'Al Gore'
p8345
(lp8346
F7.5
aI1
asS'Stephy Tang'
p8347
(lp8348
F5.3
aI1
asS'Helen Bed'
p8349
(lp8350
F7.2
aI1
asS'In-sook Choi'
p8351
(lp8352
F5.7
aI1
asS'Jessica Simpson'
p8353
(lp8354
F3.8
aI2
asS'Chandler Darby'
p8355
(lp8356
F5.9
aI1
asS'Daniel Alpert'
p8357
(lp8358
F8.3
aI1
asS'John Cena'
p8359
(lp8360
F4.7
aI1
asS'Michele Valley'
p8361
(lp8362
F7.3
aI1
asS'Barbara Flynn'
p8363
(lp8364
F7.0
aI1
asS'Jonathan Boulden'
p8365
(lp8366
F7.7
aI1
asS'Ed Begley Jr.'
p8367
(lp8368
F7.0
aI2
asS'H\xc3\xa9l\xc3\xa8ne Alexandridis'
p8369
(lp8370
F6.8
aI1
asS'Jean Reno'
p8371
(lp8372
F6.1
aI4
asS'Ye-seul Han'
p8373
(lp8374
F5.8
aI1
asS'Douglas Silva'
p8375
(lp8376
F7.3
aI1
asS'Tom Arnold'
p8377
(lp8378
F5.8
aI1
asS'Akiko Mon\xc3\xb4'
p8379
(lp8380
F5.7
aI1
asS'Arturo Barba'
p8381
(lp8382
F6.7
aI1
asS'Eun-ji Jo'
p8383
(lp8384
F6.4
aI1
asS'Spooner Oldham'
p8385
(lp8386
F7.8
aI1
asS'Lily Atkinson'
p8387
(lp8388
F6.3
aI1
asS'Chang Jung Lim'
p8389
(lp8390
F6.45
aI2
asS'Nicolas Cage'
p8391
(lp8392
F6.1499999999999995
aI6
asS'Cillian Murphy'
p8393
(lp8394
F7.5
aI1
asS'Christina DeMarco'
p8395
(lp8396
F1.4
aI1
asS'Joel Marsh Garland'
p8397
(lp8398
F5.5
aI1
asS'Carmen Electra'
p8399
(lp8400
F2.7
aI1
asS'Corey Johnson'
p8401
(lp8402
F5.95
aI2
asS'Kyle Gallner'
p8403
(lp8404
F6.25
aI2
asS'Vincenzo Fabricino'
p8405
(lp8406
F7.0
aI1
asS'John Hurt'
p8407
(lp8408
F6.199999999999999
aI2
asS'Siddharth'
p8409
(lp8410
F8.4
aI1
asS'Shi-hoo Kim'
p8411
(lp8412
F6.5
aI1
asS'Carol Burnett'
p8413
(lp8414
F6.9
aI1
asS'Alyson Hannigan'
p8415
(lp8416
F2.7
aI1
asS'Torkil H\xc3\xb8eg'
p8417
(lp8418
F5.2
aI1
asS'Ryan Kwanten'
p8419
(lp8420
F6.233333333333334
aI3
asS'Tommy Lewis'
p8421
(lp8422
F6.4
aI1
asS'Bryce Dallas Howard'
p8423
(lp8424
F5.6
aI1
asS'Eugene Levy'
p8425
(lp8426
F5.8
aI3
asS'Paul Sorvino'
p8427
(lp8428
F6.7
aI1
asS'Jacquelyn Morgan'
p8429
(lp8430
F5.3
aI1
asS'Red Madrell'
p8431
(lp8432
F6.8
aI1
asS'Yorick van Wageningen'
p8433
(lp8434
F7.4
aI1
asS'Ellen Marlow'
p8435
(lp8436
F5.4
aI1
asS'Zihan Loo'
p8437
(lp8438
F5.3
aI1
asS'Sanjay Dutt'
p8439
(lp8440
F5.2
aI2
asS'Suporntip Chuangrangsri'
p8441
(lp8442
F6.9
aI1
asS'Arjun Rampal'
p8443
(lp8444
F6.9
aI2
asS'Hristos Passalis'
p8445
(lp8446
F7.3
aI1
asS'Jake T. Austin'
p8447
(lp8448
F5.6
aI2
asS'Louis Gossett Jr.'
p8449
(lp8450
F5.3
aI1
asS'Gaspard Ulliel'
p8451
(lp8452
F6.2
aI1
asS'Joe Morton'
p8453
(lp8454
F5.9
aI1
asS'Fan Xu'
p8455
(lp8456
F7.6
aI1
asS'Johnny Harris'
p8457
(lp8458
F7.0
aI1
asS'Sarah Hellman'
p8459
(lp8460
F6.5
aI1
asS'Josh Mijal'
p8461
(lp8462
F3.2
aI1
asS'Peter Wight'
p8463
(lp8464
F7.5
aI1
asS'Jordan Ladd'
p8465
(lp8466
F5.2
aI1
asS'Russell Means'
p8467
(lp8468
F5.4
aI1
asS'Jung-mun Lee'
p8469
(lp8470
F6.1
aI1
asS'Jeffrey Dean Morgan'
p8471
(lp8472
F6.0
aI2
asS'Diane Lane'
p8473
(lp8474
F6.4
aI5
asS'Moon Bloodgood'
p8475
(lp8476
F6.433333333333333
aI3
asS'William Black'
p8477
(lp8478
F7.4
aI1
asS'Gabriel Pimentel'
p8479
(lp8480
F4.1
aI1
asS'David Flynn'
p8481
(lp8482
F6.9
aI1
asS'Mari-Ann Kelam'
p8483
(lp8484
F8.5
aI1
asS'Beau Weaver'
p8485
(lp8486
F6.1
aI1
asS'Chester'
p8487
(lp8488
F7.3
aI1
asS'Nattawat Srimawk'
p8489
(lp8490
F6.0
aI1
asS'Uday Chopra'
p8491
(lp8492
F6.4
aI1
asS'Neetu Chandra'
p8493
(lp8494
F3.5
aI1
asS'Raven-Symon\xc3\xa9'
p8495
(lp8496
F5.550000000000001
aI2
asS'Martin Lawrence'
p8497
(lp8498
F5.24
aI5
asS'Michel Vuillermoz'
p8499
(lp8500
F4.7
aI1
asS'Michael Tucker'
p8501
(lp8502
F6.5
aI1
asS'Erin Bethea'
p8503
(lp8504
F6.6
aI2
asS'Michelle Monaghan'
p8505
(lp8506
F6.7
aI3
asS'Juliette Lewis'
p8507
(lp8508
F5.2
aI1
asS'Bill Nunn'
p8509
(lp8510
F5.5
aI1
asS'Zachary Samuels'
p8511
(lp8512
F6.9
aI1
asS'Ian McShane'
p8513
(lp8514
F6.266666666666667
aI3
asS'Mohanlal'
p8515
(lp8516
F7.0
aI2
asS'John Heard'
p8517
(lp8518
F7.0
aI1
asS'Akira Kamiya'
p8519
(lp8520
F6.966666666666666
aI3
asS'Akira Emoto'
p8521
(lp8522
F6.75
aI2
asS'Trace Adkins'
p8523
(lp8524
F4.3
aI1
asS'Alan Rickman'
p8525
(lp8526
F7.199999999999999
aI2
asS'Jack Carpenter'
p8527
(lp8528
F6.3
aI1
asS'Aaron Yoo'
p8529
(lp8530
F6.7
aI1
asS'Keir ODonnell'
p8531
(lp8532
F5.0
aI3
asS'Ian James Corlett'
p8533
(lp8534
F4.3
aI1
asS'Jordan Garrett'
p8535
(lp8536
F6.8
aI1
asS'Susie Essman'
p8537
(lp8538
F6.9
aI1
asS'Penny Vital'
p8539
(lp8540
F4.1
aI1
asS'Ken Leung'
p8541
(lp8542
F6.8
aI1
asS'Whitney Able'
p8543
(lp8544
F6.0
aI2
asS'Christine Tomlinson'
p8545
(lp8546
F6.0
aI1
asS'Don Thompson'
p8547
(lp8548
F6.5
aI1
asS'Martha Espinoza'
p8549
(lp8550
F7.6
aI1
asS'Meaghan Martin'
p8551
(lp8552
F5.0
aI1
asS'Garry Shandling'
p8553
(lp8554
F6.8
aI1
asS'Iris Bahr'
p8555
(lp8556
F5.6
aI1
asS'Artur Zmijewski'
p8557
(lp8558
F7.0
aI1
asS'Adam Brody'
p8559
(lp8560
F5.8
aI2
asS'Jay Shih'
p8561
(lp8562
F6.3
aI1
asS'Robert Forster'
p8563
(lp8564
F6.0
aI1
asS'Cate Blanchett'
p8565
(lp8566
F6.92
aI5
asS'Katsunosuke Hori'
p8567
(lp8568
F7.7
aI1
asS'June Foray'
p8569
(lp8570
F6.4
aI1
asS'Joseph Gordon-Levitt'
p8571
(lp8572
F6.659999999999999
aI5
asS'Jonathan Halyalkar'
p8573
(lp8574
F4.9
aI1
asS'Robert Belushi'
p8575
(lp8576
F5.1
aI1
asS'Steven Pasquale'
p8577
(lp8578
F4.7
aI1
asS'Konstantin Khabenskiy'
p8579
(lp8580
F6.5
aI1
asS'Megan Fox'
p8581
(lp8582
F5.88
aI5
asS'Faycal Attougui'
p8583
(lp8584
F6.9
aI1
asS'Jackie Earle Haley'
p8585
(lp8586
F7.166666666666667
aI3
asS'Don McManus'
p8587
(lp8588
F6.3
aI1
asS'Ray Barrett'
p8589
(lp8590
F6.6
aI1
asS'Eric Bana'
p8591
(lp8592
F7.050000000000001
aI6
asS'Jorge-Yamam Serrano'
p8593
(lp8594
F7.5
aI1
asS'Larry McHale'
p8595
(lp8596
F6.2
aI1
asS'Jason Clarke'
p8597
(lp8598
F7.0
aI1
asS'Dylan Roberts'
p8599
(lp8600
F6.6
aI1
asS'Rishi Kapoor'
p8601
(lp8602
F7.2
aI1
asS'Nathan Constance'
p8603
(lp8604
F7.0
aI1
asS'Jon Hamm'
p8605
(lp8606
F7.6
aI1
asS'Alison Pill'
p8607
(lp8608
F7.15
aI2
asS'Robert Paterson'
p8609
(lp8610
F7.0
aI1
asS'Jun Hu'
p8611
(lp8612
F6.4
aI1
asS'Eric Dane'
p8613
(lp8614
F6.75
aI2
asS'Tanc Sade'
p8615
(lp8616
F6.1
aI1
asS'Vanessa Hudgens'
p8617
(lp8618
F5.175000000000001
aI4
asS'Jaime Winstone'
p8619
(lp8620
F7.2
aI1
asS'Martin Donovan'
p8621
(lp8622
F5.9
aI1
asS'Lara Robinson'
p8623
(lp8624
F6.2
aI1
asS'Bill Pullman'
p8625
(lp8626
F5.449999999999999
aI2
asS'M\xc3\xada Maestro'
p8627
(lp8628
F6.2
aI1
asS'Maggie Gwin'
p8629
(lp8630
F5.5
aI1
asS'Colin Firth'
p8631
(lp8632
F6.540000000000001
aI5
asS'Cameron Richardson'
p8633
(lp8634
F5.3
aI1
asS'Paul Newman'
p8635
(lp8636
F7.300000000000001
aI2
asS'Jon Heder'
p8637
(lp8638
F6.233333333333333
aI3
asS'Raquela Rios'
p8639
(lp8640
F6.2
aI1
asS'Lynn Whitfield'
p8641
(lp8642
F5.0
aI1
asS'Henry Joost'
p8643
(lp8644
F7.1
aI1
asS'Gene Dinovi'
p8645
(lp8646
F6.6
aI1
asS'Emmanuelle B\xc3\xa9art'
p8647
(lp8648
F5.3
aI1
asS'Richard DeDomenico'
p8649
(lp8650
F7.1
aI1
asS'Trenton Rogers'
p8651
(lp8652
F6.4
aI1
asS'Rose McGowan'
p8653
(lp8654
F7.2
aI1
asS'Michael Smiley'
p8655
(lp8656
F6.2
aI1
asS'Toar Campbell'
p8657
(lp8658
F2.7
aI1
asS'Lili Taylor'
p8659
(lp8660
F6.2
aI1
asS'Ben Kingsley'
p8661
(lp8662
F6.728571428571429
aI7
asS'Mick Lally'
p8663
(lp8664
F7.7
aI1
asS'Kevin Spacey'
p8665
(lp8666
F6.62
aI5
asS'Katharine Towne'
p8667
(lp8668
F6.8
aI1
asS'Chris Marquette'
p8669
(lp8670
F6.300000000000001
aI3
asS'Geoffrey Arend'
p8671
(lp8672
F4.3
aI1
asS'Alberto Ammann'
p8673
(lp8674
F7.7
aI1
asS'Leonor Watling'
p8675
(lp8676
F6.1
aI1
asS'Jaden Smith'
p8677
(lp8678
F6.75
aI2
asS'Myung-min Kim'
p8679
(lp8680
F6.5
aI1
asS'Tom Frederic'
p8681
(lp8682
F4.1
aI2
asS'Bahar Soomekh'
p8683
(lp8684
F6.2
aI1
asS'Waqar Siddiqui'
p8685
(lp8686
F7.5
aI1
asS'Michael Pe\xc3\xb1a'
p8687
(lp8688
F6.5200000000000005
aI5
asS'Danielle Panabaker'
p8689
(lp8690
F5.7
aI1
asS'Jason Griggers'
p8691
(lp8692
F6.9
aI1
asS'Nathan Fillion'
p8693
(lp8694
F7.0
aI3
asS'Rishi Deshpande'
p8695
(lp8696
F7.3
aI1
asS'Miriam Toews'
p8697
(lp8698
F7.3
aI1
asS'Kim Uylenbroek'
p8699
(lp8700
F7.9
aI1
asS'Gabrielle Dennis'
p8701
(lp8702
F5.3
aI1
asS'Dwight McMillan'
p8703
(lp8704
F3.2
aI1
asS'Maria Bello'
p8705
(lp8706
F6.14
aI5
asS'David Lyons'
p8707
(lp8708
F5.9
aI1
asS'Yun-Yeong Choe'
p8709
(lp8710
F5.7
aI1
asS'Zooey Deschanel'
p8711
(lp8712
F6.325
aI4
asS'Niloofar Basir'
p8713
(lp8714
F7.8
aI1
asS'Teri Andrez'
p8715
(lp8716
F5.1
aI1
asS'Sam Shepard'
p8717
(lp8718
F5.6
aI1
asS'Abbie Cornish'
p8719
(lp8720
F7.0
aI2
asS'Solange Knowles'
p8721
(lp8722
F5.7
aI1
asS'Shannen Fields'
p8723
(lp8724
F6.7
aI1
asS'Robert Balfanz'
p8725
(lp8726
F7.5
aI1
asS'Kad Merad'
p8727
(lp8728
F7.1
aI1
asS'Space Invader'
p8729
(lp8730
F8.0
aI1
asS'Justin Gross'
p8731
(lp8732
F6.8
aI1
asS'Jeff Goldblum'
p8733
(lp8734
F6.75
aI2
asS'Julia Ruiz'
p8735
(lp8736
F2.3
aI1
asS'Danielle Darrieux'
p8737
(lp8738
F8.0
aI1
asS'Ittoku Kishibe'
p8739
(lp8740
F7.1
aI1
asS'Chevy Chase'
p8741
(lp8742
F4.2
aI1
asS'Ji-ru Sung'
p8743
(lp8744
F6.0
aI1
asS'David Lloyd'
p8745
(lp8746
F7.6
aI1
asS'Charmy Kaur'
p8747
(lp8748
F5.1
aI1
asS'Joonas Saartamo'
p8749
(lp8750
F7.6
aI1
asS'Tony Liu'
p8751
(lp8752
F6.8
aI1
asS'Michael Piccirilli'
p8753
(lp8754
F5.7
aI1
asS'Tsung-Hua Tuo'
p8755
(lp8756
F3.9
aI1
asS'Karen Disher'
p8757
(lp8758
F7.0
aI1
asS'Donald Faison'
p8759
(lp8760
F5.9
aI1
asS'Manobala'
p8761
(lp8762
F8.2
aI1
asS'Al Franken'
p8763
(lp8764
F6.6
aI1
asS'Emile Robert'
p8765
(lp8766
F6.8
aI1
asS'Rachel Bell'
p8767
(lp8768
F6.3
aI1
asS'Ralph Fiennes'
p8769
(lp8770
F7.033333333333334
aI3
asS'Edith Bouvier Beale'
p8771
(lp8772
F7.4
aI1
asS'Joel Gretsch'
p8773
(lp8774
F6.1
aI1
asS'Daniel Gillies'
p8775
(lp8776
F5.800000000000001
aI2
asS'Amanda Walsh'
p8777
(lp8778
F4.5
aI1
asS'LaMonta Caldwell'
p8779
(lp8780
F7.6
aI1
asS'Ron Crawford'
p8781
(lp8782
F6.0
aI1
asS'Nisreen Faour'
p8783
(lp8784
F7.1
aI1
asS'Jon Foster'
p8785
(lp8786
F5.3
aI2
asS'Patricia Clarkson'
p8787
(lp8788
F6.2749999999999995
aI4
asS'Yoon-seo Chae'
p8789
(lp8790
F5.9
aI1
asS'Mia Wasikowska'
p8791
(lp8792
F7.1
aI1
as.