(dp0
S'Sci-Fi'
p1
(lp2
F5.833333333333335
aI102
asS'Crime'
p3
(lp4
F6.494372294372296
aI231
asS'Romance'
p5
(lp6
F6.238181818181815
aI275
asS'Animation'
p7
(lp8
F6.618181818181819
aI110
asS'Music'
p9
(lp10
F6.614999999999997
aI60
asS'Adult'
p11
(lp12
F6.65
aI2
asS'Comedy'
p13
(lp14
F6.027160493827159
aI567
asS'War'
p15
(lp16
F7.072413793103446
aI29
asS'Horror'
p17
(lp18
F5.422282608695654
aI184
asS'Adventure'
p19
(lp20
F6.207729468599031
aI207
asS'Thriller'
p21
(lp22
F6.050943396226417
aI212
asS'Western'
p23
(lp24
F5.716666666666666
aI6
asS'Mystery'
p25
(lp26
F6.306250000000001
aI128
asS'Short'
p27
(lp28
F6.7081081081081075
aI37
asS'Drama'
p29
(lp30
F6.622974767596276
aI753
asS'Action'
p31
(lp32
F6.076896551724137
aI290
asS'Documentary'
p33
(lp34
F7.057894736842107
aI95
asS'Musical'
p35
(lp36
F6.283333333333334
aI12
asS'History'
p37
(lp38
F6.929166666666666
aI48
asS'Family'
p39
(lp40
F5.965040650406506
aI123
asS'Fantasy'
p41
(lp42
F6.244117647058824
aI102
asS'Sport'
p43
(lp44
F6.35744680851064
aI47
asS'Biography'
p45
(lp46
F7.116249999999999
aI80
as.